
Lab_8_CPU1.elf:     file format elf32-littlenios2
Lab_8_CPU1.elf
architecture: nios2:r1, flags 0x00000112:
EXEC_P, HAS_SYMS, D_PAGED
start address 0x00040230

Program Header:
    LOAD off    0x00001000 vaddr 0x00040000 paddr 0x00040000 align 2**12
         filesz 0x00000020 memsz 0x00000020 flags r-x
    LOAD off    0x00001020 vaddr 0x00040020 paddr 0x00040020 align 2**12
         filesz 0x00018f18 memsz 0x00018f18 flags r-x
    LOAD off    0x00019f38 vaddr 0x00058f38 paddr 0x0005aac8 align 2**12
         filesz 0x00001b90 memsz 0x00001b90 flags rw-
    LOAD off    0x0001c658 vaddr 0x0005c658 paddr 0x0005c658 align 2**12
         filesz 0x00000000 memsz 0x000073ec flags rw-

Sections:
Idx Name          Size      VMA       LMA       File off  Algn
  0 .entry        00000020  00040000  00040000  00001000  2**5
                  CONTENTS, ALLOC, LOAD, READONLY, CODE
  1 .exceptions   00000210  00040020  00040020  00001020  2**2
                  CONTENTS, ALLOC, LOAD, READONLY, CODE
  2 .text         00018868  00040230  00040230  00001230  2**2
                  CONTENTS, ALLOC, LOAD, READONLY, CODE
  3 .rodata       000004a0  00058a98  00058a98  00019a98  2**2
                  CONTENTS, ALLOC, LOAD, READONLY, DATA
  4 .rwdata       00001b90  00058f38  0005aac8  00019f38  2**2
                  CONTENTS, ALLOC, LOAD, DATA, SMALL_DATA
  5 .bss          000073ec  0005c658  0005c658  0001c658  2**2
                  ALLOC, SMALL_DATA
  6 .RAM1         00000000  00063a44  00063a44  0001bac8  2**0
                  CONTENTS
  7 .SHARED_MEMORY 00000000  00081000  00081000  0001bac8  2**0
                  CONTENTS
  8 .comment      00000023  00000000  00000000  0001bac8  2**0
                  CONTENTS, READONLY
  9 .debug_aranges 00001030  00000000  00000000  0001baf0  2**3
                  CONTENTS, READONLY, DEBUGGING
 10 .debug_info   0002d265  00000000  00000000  0001cb20  2**0
                  CONTENTS, READONLY, DEBUGGING
 11 .debug_abbrev 0000aced  00000000  00000000  00049d85  2**0
                  CONTENTS, READONLY, DEBUGGING
 12 .debug_line   0000dd1c  00000000  00000000  00054a72  2**0
                  CONTENTS, READONLY, DEBUGGING
 13 .debug_frame  000033b4  00000000  00000000  00062790  2**2
                  CONTENTS, READONLY, DEBUGGING
 14 .debug_str    00004b70  00000000  00000000  00065b44  2**0
                  CONTENTS, READONLY, DEBUGGING
 15 .debug_loc    00017755  00000000  00000000  0006a6b4  2**0
                  CONTENTS, READONLY, DEBUGGING
 16 .debug_alt_sim_info 00000010  00000000  00000000  00081e0c  2**2
                  CONTENTS, READONLY, DEBUGGING
 17 .debug_ranges 000018a0  00000000  00000000  00081e20  2**3
                  CONTENTS, READONLY, DEBUGGING
 18 .thread_model 00000006  00000000  00000000  00088296  2**0
                  CONTENTS, READONLY
 19 .cpu          0000000a  00000000  00000000  0008829c  2**0
                  CONTENTS, READONLY
 20 .qsys         00000001  00000000  00000000  000882a6  2**0
                  CONTENTS, READONLY
 21 .simulation_enabled 00000001  00000000  00000000  000882a7  2**0
                  CONTENTS, READONLY
 22 .stderr_dev   00000009  00000000  00000000  000882a8  2**0
                  CONTENTS, READONLY
 23 .stdin_dev    00000009  00000000  00000000  000882b1  2**0
                  CONTENTS, READONLY
 24 .stdout_dev   00000009  00000000  00000000  000882ba  2**0
                  CONTENTS, READONLY
 25 .sopc_system_name 00000004  00000000  00000000  000882c3  2**0
                  CONTENTS, READONLY
 26 .quartus_project_dir 0000001b  00000000  00000000  000882c7  2**0
                  CONTENTS, READONLY
 27 .jdi          00006e31  00000000  00000000  000882e2  2**0
                  CONTENTS, READONLY
 28 .sopcinfo     0009a812  00000000  00000000  0008f113  2**0
                  CONTENTS, READONLY
SYMBOL TABLE:
00040000 l    d  .entry	00000000 .entry
00040020 l    d  .exceptions	00000000 .exceptions
00040230 l    d  .text	00000000 .text
00058a98 l    d  .rodata	00000000 .rodata
00058f38 l    d  .rwdata	00000000 .rwdata
0005c658 l    d  .bss	00000000 .bss
00063a44 l    d  .RAM1	00000000 .RAM1
00081000 l    d  .SHARED_MEMORY	00000000 .SHARED_MEMORY
00000000 l    d  .comment	00000000 .comment
00000000 l    d  .debug_aranges	00000000 .debug_aranges
00000000 l    d  .debug_info	00000000 .debug_info
00000000 l    d  .debug_abbrev	00000000 .debug_abbrev
00000000 l    d  .debug_line	00000000 .debug_line
00000000 l    d  .debug_frame	00000000 .debug_frame
00000000 l    d  .debug_str	00000000 .debug_str
00000000 l    d  .debug_loc	00000000 .debug_loc
00000000 l    d  .debug_alt_sim_info	00000000 .debug_alt_sim_info
00000000 l    d  .debug_ranges	00000000 .debug_ranges
00000000 l    df *ABS*	00000000 ../Lab_8_CPU1_bsp//obj/HAL/src/crt0.o
00040268 l       .text	00000000 alt_after_alt_main
00000000 l    df *ABS*	00000000 alt_irq_handler.c
00000000 l    df *ABS*	00000000 alt_instruction_exception_entry.c
00000000 l    df *ABS*	00000000 hello_ucosii.c
00000000 l    df *ABS*	00000000 printf.c
00000000 l    df *ABS*	00000000 vfprintf.c
00058b56 l     O .rodata	00000010 zeroes.4404
000427a0 l     F .text	000000bc __sbprintf
00058b66 l     O .rodata	00000010 blanks.4403
00000000 l    df *ABS*	00000000 wsetup.c
00000000 l    df *ABS*	00000000 dtoa.c
000429b0 l     F .text	00000228 quorem
00000000 l    df *ABS*	00000000 fflush.c
00000000 l    df *ABS*	00000000 findfp.c
00044508 l     F .text	00000008 __fp_unlock
0004451c l     F .text	0000019c __sinit.part.1
000446b8 l     F .text	00000008 __fp_lock
00000000 l    df *ABS*	00000000 mallocr.c
00000000 l    df *ABS*	00000000 fwalk.c
00000000 l    df *ABS*	00000000 impure.c
00058f38 l     O .rwdata	00000424 impure_data
00000000 l    df *ABS*	00000000 locale.c
0005937c l     O .rwdata	00000020 lc_ctype_charset
0005935c l     O .rwdata	00000020 lc_message_charset
0005939c l     O .rwdata	00000038 lconv
00000000 l    df *ABS*	00000000 makebuf.c
00000000 l    df *ABS*	00000000 mallocr.c
00000000 l    df *ABS*	00000000 memchr.c
00000000 l    df *ABS*	00000000 memcpy.c
00000000 l    df *ABS*	00000000 memset.c
00000000 l    df *ABS*	00000000 mprec.c
00058b98 l     O .rodata	0000000c p05.2768
00000000 l    df *ABS*	00000000 s_fpclassify.c
00000000 l    df *ABS*	00000000 sbrkr.c
00000000 l    df *ABS*	00000000 stdio.c
00000000 l    df *ABS*	00000000 strcmp.c
00000000 l    df *ABS*	00000000 strlen.c
00000000 l    df *ABS*	00000000 vfprintf.c
0004709c l     F .text	000000fc __sprint_r.part.0
00058cbc l     O .rodata	00000010 zeroes.4349
000486d8 l     F .text	000000bc __sbprintf
00058ccc l     O .rodata	00000010 blanks.4348
00000000 l    df *ABS*	00000000 writer.c
00000000 l    df *ABS*	00000000 closer.c
00000000 l    df *ABS*	00000000 mallocr.c
00000000 l    df *ABS*	00000000 fclose.c
00000000 l    df *ABS*	00000000 fputwc.c
00000000 l    df *ABS*	00000000 fstatr.c
00000000 l    df *ABS*	00000000 fvwrite.c
00000000 l    df *ABS*	00000000 int_errno.c
00000000 l    df *ABS*	00000000 isattyr.c
00000000 l    df *ABS*	00000000 lseekr.c
00000000 l    df *ABS*	00000000 memmove.c
00000000 l    df *ABS*	00000000 readr.c
00000000 l    df *ABS*	00000000 mallocr.c
00000000 l    df *ABS*	00000000 wbuf.c
00000000 l    df *ABS*	00000000 wcrtomb.c
00000000 l    df *ABS*	00000000 wctomb_r.c
00000000 l    df *ABS*	00000000 libgcc2.c
00000000 l    df *ABS*	00000000 libgcc2.c
00000000 l    df *ABS*	00000000 lib2-divmod.c
00000000 l    df *ABS*	00000000 lib2-mul.c
00000000 l    df *ABS*	00000000 adddf3.c
00000000 l    df *ABS*	00000000 divdf3.c
00000000 l    df *ABS*	00000000 eqdf2.c
00000000 l    df *ABS*	00000000 gedf2.c
00000000 l    df *ABS*	00000000 ledf2.c
00000000 l    df *ABS*	00000000 muldf3.c
00000000 l    df *ABS*	00000000 subdf3.c
00000000 l    df *ABS*	00000000 fixdfsi.c
00000000 l    df *ABS*	00000000 floatsidf.c
00000000 l    df *ABS*	00000000 floatunsidf.c
00000000 l    df *ABS*	00000000 libgcc2.c
00000000 l    df *ABS*	00000000 libgcc2.c
00000000 l    df *ABS*	00000000 alt_close.c
0004d2a8 l     F .text	0000003c alt_get_errno
00000000 l    df *ABS*	00000000 alt_dev.c
0004d3bc l     F .text	0000002c alt_dev_null_write
00000000 l    df *ABS*	00000000 alt_errno.c
00000000 l    df *ABS*	00000000 alt_fstat.c
0004d3e8 l     F .text	0000003c alt_get_errno
00000000 l    df *ABS*	00000000 alt_isatty.c
0004d4dc l     F .text	0000003c alt_get_errno
00000000 l    df *ABS*	00000000 alt_load.c
0004d5c4 l     F .text	00000068 alt_load_section
00000000 l    df *ABS*	00000000 alt_lseek.c
0004d6b0 l     F .text	0000003c alt_get_errno
00000000 l    df *ABS*	00000000 alt_main.c
00000000 l    df *ABS*	00000000 alt_read.c
0004d884 l     F .text	0000003c alt_get_errno
00000000 l    df *ABS*	00000000 alt_release_fd.c
00000000 l    df *ABS*	00000000 alt_sbrk.c
0005aa34 l     O .rwdata	00000004 heap_end
00000000 l    df *ABS*	00000000 alt_write.c
0004daf8 l     F .text	0000003c alt_get_errno
00000000 l    df *ABS*	00000000 alt_env_lock.c
0005aa38 l     O .rwdata	00000004 lockid
0005c688 l     O .bss	00000004 locks
00000000 l    df *ABS*	00000000 alt_malloc_lock.c
0005aa3c l     O .rwdata	00000004 lockid
0005c690 l     O .bss	00000004 locks
00000000 l    df *ABS*	00000000 os_core.c
0004f530 l     F .text	00000048 OS_InitMisc
0004f578 l     F .text	0000006c OS_InitRdyList
0004f6e4 l     F .text	000000e4 OS_InitTCBList
0004f450 l     F .text	000000e0 OS_InitEventList
0004f5e4 l     F .text	00000080 OS_InitTaskIdle
0004f664 l     F .text	00000080 OS_InitTaskStat
0004f954 l     F .text	00000074 OS_SchedNew
00000000 l    df *ABS*	00000000 os_dbg.c
00000000 l    df *ABS*	00000000 os_flag.c
00051664 l     F .text	000000f4 OS_FlagTaskRdy
00051424 l     F .text	00000160 OS_FlagBlock
00000000 l    df *ABS*	00000000 os_mbox.c
00000000 l    df *ABS*	00000000 os_mem.c
00000000 l    df *ABS*	00000000 os_q.c
00000000 l    df *ABS*	00000000 os_sem.c
00000000 l    df *ABS*	00000000 os_task.c
00000000 l    df *ABS*	00000000 os_time.c
00000000 l    df *ABS*	00000000 alt_sys_init.c
00056204 l     F .text	00000034 alt_dev_reg
00056238 l     F .text	0000003c alt_get_errno
00056274 l     F .text	000000a8 alt_avalon_mutex_reg
00059984 l     O .rwdata	0000106c JTAG_UART
0005a9f0 l     O .rwdata	00000014 MUTEX
00000000 l    df *ABS*	00000000 altera_avalon_jtag_uart_fd.c
00000000 l    df *ABS*	00000000 altera_avalon_jtag_uart_init.c
0005666c l     F .text	000002a4 altera_avalon_jtag_uart_irq
00056910 l     F .text	00000104 altera_avalon_jtag_uart_timeout
00000000 l    df *ABS*	00000000 altera_avalon_jtag_uart_ioctl.c
00000000 l    df *ABS*	00000000 altera_avalon_jtag_uart_read.c
00000000 l    df *ABS*	00000000 altera_avalon_jtag_uart_write.c
00000000 l    df *ABS*	00000000 altera_avalon_mutex.c
000570ec l     F .text	0000003c alt_get_errno
00057128 l     F .text	0000007c alt_mutex_trylock
00000000 l    df *ABS*	00000000 altera_avalon_timer_sc.c
00057438 l     F .text	00000078 alt_avalon_timer_sc_irq
00000000 l    df *ABS*	00000000 alt_alarm_start.c
00000000 l    df *ABS*	00000000 alt_dcache_flush_all.c
00000000 l    df *ABS*	00000000 alt_dev_llist_insert.c
00057678 l     F .text	0000003c alt_get_errno
00000000 l    df *ABS*	00000000 alt_do_ctors.c
00000000 l    df *ABS*	00000000 alt_do_dtors.c
00000000 l    df *ABS*	00000000 alt_find_dev.c
00000000 l    df *ABS*	00000000 alt_icache_flush_all.c
00000000 l    df *ABS*	00000000 alt_iic.c
00000000 l    df *ABS*	00000000 alt_iic_isr_register.c
00000000 l    df *ABS*	00000000 alt_io_redirect.c
00057b68 l     F .text	000000e4 alt_open_fd
00000000 l    df *ABS*	00000000 alt_irq_vars.c
00000000 l    df *ABS*	00000000 alt_open.c
00057cc8 l     F .text	0000003c alt_get_errno
00057d04 l     F .text	000000ec alt_file_locked
00000000 l    df *ABS*	00000000 alt_tick.c
00000000 l    df *ABS*	00000000 altera_nios2_gen2_irq.c
00000000 l    df *ABS*	00000000 os_cpu_a.o
00000040 l       *ABS*	00000000 OSCtxSw_SWITCH_PC
00000000 l    df *ABS*	00000000 os_cpu_c.c
00000014 l       *ABS*	00000000 OSTCBNext_OFFSET
00000032 l       *ABS*	00000000 OSTCBPrio_OFFSET
00000000 l       *ABS*	00000000 OSTCBStkPtr_OFFSET
00000000 l    df *ABS*	00000000 alt_find_file.c
00000000 l    df *ABS*	00000000 alt_get_fd.c
00000000 l    df *ABS*	00000000 atexit.c
00000000 l    df *ABS*	00000000 exit.c
00000000 l    df *ABS*	00000000 memcmp.c
00000000 l    df *ABS*	00000000 __atexit.c
00000000 l    df *ABS*	00000000 __call_atexit.c
00000000 l    df *ABS*	00000000 alt_exit.c
0005c6f4 g     O .bss	00000004 alt_instruction_exception_handler
00046bac g     F .text	00000074 _mprec_log10
0005aa8a g     O .rwdata	00000002 OSTaskNameSize
00046c98 g     F .text	0000008c __any_on
00049154 g     F .text	00000054 _isatty_r
00058ba4 g     O .rodata	00000028 __mprec_tinytens
0004d7c8 g     F .text	000000bc alt_main
00063944 g     O .bss	00000100 alt_irq
000491a8 g     F .text	00000060 _lseek_r
0005294c g     F .text	000000d8 OS_MemInit
0005aac8 g       *ABS*	00000000 __flash_rwdata_start
000561a4 g     F .text	00000060 OSTimeSet
0004bc80 g     F .text	00000088 .hidden __eqdf2
0004e1a4 g     F .text	00000610 OSEventPendMulti
00063a44 g       *ABS*	00000000 __alt_heap_start
00058340 g     F .text	00000024 OSTaskCreateHook
0005c720 g     O .bss	00002000 task1_stk
0004046c g     F .text	0000003c printf
0005aa62 g     O .rwdata	00000002 OSMboxEn
0004e80c g     F .text	0000004c OSIntEnter
00049a80 g     F .text	0000009c _wcrtomb_r
00046ec4 g     F .text	0000005c __sseek
00044868 g     F .text	00000010 __sinit
00049928 g     F .text	00000140 __swbuf_r
0005aa72 g     O .rwdata	00000002 OSQEn
00044e74 g     F .text	0000007c _setlocale_r
000446c0 g     F .text	00000078 __sfmoreglue
0004de78 g     F .text	000000cc __malloc_unlock
000583a8 g     F .text	00000020 OSTaskStatHook
0005c698 g     O .bss	00000001 OSLockNesting
0005aab0 g     O .rwdata	00000002 OSDataSize
0005c699 g     O .bss	00000001 OSRunning
00049208 g     F .text	0000015c memmove
000583e8 g     F .text	00000020 OSInitHookBegin
0005aaa8 g     O .rwdata	00000002 OSTmrSize
00044850 g     F .text	00000018 _cleanup
00057288 g     F .text	00000080 altera_avalon_mutex_trylock
00045c6c g     F .text	000000a8 _Balloc
0005c69c g     O .bss	00000004 OSIdleCtr
0004bd08 g     F .text	000000dc .hidden __gtdf2
000580f0 g     F .text	00000024 altera_nios2_gen2_irq_init
000581c0 g       .text	00000000 OSStartTsk
0004fc84 g     F .text	000002d4 OS_TCBInit
00040000 g     F .entry	0000000c __reset
0005aaae g     O .rwdata	00000002 OSTmrWheelTblSize
00057374 g     F .text	00000074 altera_avalon_mutex_is_mine
00040020 g       *ABS*	00000000 __flash_exceptions_start
0005aa4e g     O .rwdata	00000002 OSEventSize
0005c6a0 g     O .bss	00000001 OSPrioHighRdy
00048c30 g     F .text	0000005c _fstat_r
00058364 g     F .text	00000024 OSTaskDelHook
0005c674 g     O .bss	00000004 errno
00046e40 g     F .text	00000008 __seofread
000581a0 g       .text	00000000 OSStartHighRdy
00054c24 g     F .text	000001e4 OSTaskCreateExt
00050f6c g     F .text	00000060 OSFlagPendGetFlagsRdy
0005aa8e g     O .rwdata	00000002 OSTaskStatStkSize
000500e8 g     F .text	00000308 OSFlagAccept
00052f90 g     F .text	000000b8 OSQFlush
00052a24 g     F .text	00000140 OSQAccept
0005c680 g     O .bss	00000004 alt_argv
00062a04 g       *ABS*	00000000 _gp
00054a78 g     F .text	000001ac OSTaskCreate
00054588 g     F .text	000004f0 OSTaskChangePrio
0005c694 g     O .bss	00000004 alt_heapsem
0004ff58 g     F .text	00000190 OSDebugInit
00054e08 g     F .text	00000344 OSTaskDel
00059804 g     O .rwdata	00000180 alt_fd_list
00060720 g     O .bss	00000370 OSFlagTbl
0004f230 g     F .text	000000b8 OS_EventTaskRemove
00057818 g     F .text	00000090 alt_find_dev
000459fc g     F .text	00000148 memcpy
0005aa78 g     O .rwdata	00000002 OSRdyTblSize
00044510 g     F .text	0000000c _cleanup_r
0004d0c0 g     F .text	000000dc .hidden __floatsidf
00057c4c g     F .text	0000007c alt_io_redirect
0004bde4 g     F .text	000000f4 .hidden __ltdf2
00058a98 g       *ABS*	00000000 __DTOR_END__
00058668 g     F .text	0000009c alt_exception_cause_generated_bad_addr
0004df44 g     F .text	00000120 OSEventNameGet
0005aa5c g     O .rwdata	00000002 OSFlagMax
00046d24 g     F .text	00000074 __fpclassifyd
00046b08 g     F .text	000000a4 __ratio
0004e858 g     F .text	000000f8 OSIntExit
000486bc g     F .text	0000001c __vfiprintf_internal
0005aa96 g     O .rwdata	00000002 OSTCBSize
0005c6a1 g     O .bss	00000001 OSPrioCur
00056b6c g     F .text	000002bc altera_avalon_jtag_uart_read
0004043c g     F .text	00000030 _printf_r
0004a920 g     F .text	00000064 .hidden __udivsi3
0004d518 g     F .text	000000ac isatty
0005aa7c g     O .rwdata	00000002 OSStkWidth
00058bf4 g     O .rodata	000000c8 __mprec_tens
0005aa70 g     O .rwdata	00000002 OSPtrSize
00044ef0 g     F .text	0000000c __locale_charset
0005aa50 g     O .rwdata	00000002 OSEventTblSize
00058114 g       .text	00000000 OSCtxSw
0005c670 g     O .bss	00000004 __malloc_top_pad
0005c6a4 g     O .bss	00000004 OSTCBList
0005c678 g     O .bss	00000004 alt_fd_list_lock
0005aa0c g     O .rwdata	00000004 __mb_cur_max
00044f20 g     F .text	0000000c _localeconv_r
00048c8c g     F .text	000004c8 __sfvwrite_r
000460a0 g     F .text	0000003c __i2b
00060a90 g     O .bss	00000c30 OSMemTbl
0005c6a8 g     O .bss	00000001 OSTickStepState
00046d98 g     F .text	00000054 _sbrk_r
0005aa74 g     O .rwdata	00000002 OSQMax
000616c0 g     O .bss	00000800 OSTaskStatStk
00052588 g     F .text	000000f0 OSMemNameGet
0005aa54 g     O .rwdata	00000002 OSFlagEn
00049364 g     F .text	00000060 _read_r
0005aa9a g     O .rwdata	00000002 OSTimeTickHookEn
00053440 g     F .text	00000168 OSQPost
00051758 g     F .text	000000a4 OS_FlagUnlink
0005aa2c g     O .rwdata	00000004 alt_max_fd
0004f81c g     F .text	00000068 OS_MemCopy
0004f884 g     F .text	000000d0 OS_Sched
00048924 g     F .text	000000f0 _fclose_r
00052498 g     F .text	000000f0 OSMemGet
000521b4 g     F .text	00000110 OSMboxQuery
00055434 g     F .text	000001b4 OSTaskNameSet
000444d8 g     F .text	00000030 fflush
0005c66c g     O .bss	00000004 __malloc_max_sbrked_mem
0005c6ac g     O .bss	00000004 OSCtxSwCtr
000583c8 g     F .text	00000020 OSTimeTickHook
0005aa5e g     O .rwdata	00000002 OSFlagNameSize
0004f2e8 g     F .text	00000100 OS_EventTaskRemoveMulti
0004aa04 g     F .text	000008ac .hidden __adddf3
0004f0e0 g     F .text	00000150 OS_EventTaskWaitMulti
000468b0 g     F .text	0000010c __b2d
0005aa76 g     O .rwdata	00000002 OSQSize
0004a264 g     F .text	000005c4 .hidden __umoddi3
0004d6ec g     F .text	000000dc lseek
000573e8 g     F .text	00000050 altera_avalon_mutex_first_lock
00053ef0 g     F .text	0000020c OSSemPend
0005aa04 g     O .rwdata	00000004 _global_impure_ptr
000493c4 g     F .text	00000564 _realloc_r
0005aa60 g     O .rwdata	00000002 OSLowestPrio
00063a44 g       *ABS*	00000000 __bss_end
00057a78 g     F .text	000000f0 alt_iic_isr_register
00058448 g     F .text	00000024 OSTCBInitHook
0005aaa6 g     O .rwdata	00000002 OSTmrCfgTicksPerSec
00057fe8 g     F .text	00000108 alt_tick
00051f48 g     F .text	00000110 OSMboxPost
00049c68 g     F .text	000005fc .hidden __udivdi3
00048b8c g     F .text	00000024 _fputwc_r
0005aa48 g     O .rwdata	00000002 OSEventEn
00058bcc g     O .rodata	00000028 __mprec_bigtens
00045e84 g     F .text	00000104 __s2b
0005aaa2 g     O .rwdata	00000002 OSTmrCfgNameSize
0004d19c g     F .text	000000a8 .hidden __floatunsidf
000465f0 g     F .text	00000060 __mcmp
00044888 g     F .text	00000018 __fp_lock_all
00057a2c g     F .text	0000004c alt_ic_irq_enabled
00040000 g       *ABS*	00000000 __alt_mem_RAM1
00051584 g     F .text	000000e0 OS_FlagInit
00057f4c g     F .text	0000009c alt_alarm_stop
0005aa84 g     O .rwdata	00000002 OSTaskIdleStkSize
0005c6e8 g     O .bss	00000004 alt_irq_active
00053b28 g     F .text	000000b0 OSSemAccept
0005278c g     F .text	000000d8 OSMemPut
000522c4 g     F .text	000001d4 OSMemCreate
0005c6b0 g     O .bss	00000004 OSIdleCtrMax
000400fc g     F .exceptions	000000d4 alt_irq_handler
000597dc g     O .rwdata	00000028 alt_dev_null
0005aa98 g     O .rwdata	00000002 OSTicksPerSec
000571a4 g     F .text	00000054 altera_avalon_mutex_open
00058114 g       .text	00000000 OSIntCtxSw
00057658 g     F .text	00000020 alt_dcache_flush_all
00045f88 g     F .text	00000068 __hi0bits
0004d040 g     F .text	00000080 .hidden __fixdfsi
0005c6b4 g     O .bss	00000004 OSTCBFreeList
0005aac8 g       *ABS*	00000000 __ram_rwdata_end
000540fc g     F .text	0000016c OSSemPendAbort
0005aa24 g     O .rwdata	00000008 alt_dev_list
0004db34 g     F .text	00000100 write
0005aa9c g     O .rwdata	00000002 OSVersionNbr
0005aab4 g     O .rwdata	00000008 alt_mutex_list
00058f38 g       *ABS*	00000000 __ram_rodata_end
0004d424 g     F .text	000000b8 fstat
0004bde4 g     F .text	000000f4 .hidden __ledf2
0005aa44 g     O .rwdata	00000004 OSEndiannessTest
00046368 g     F .text	00000140 __pow5mult
000471b0 g     F .text	0000150c ___vfiprintf_internal_r
0005c664 g     O .bss	00000004 __nlocale_changed
0004a984 g     F .text	00000058 .hidden __umodsi3
0005aa56 g     O .rwdata	00000002 OSFlagGrpSize
00063a44 g       *ABS*	00000000 end
00056524 g     F .text	00000148 altera_avalon_jtag_uart_init
0004faec g     F .text	000000cc OS_TaskStat
000401d0 g     F .exceptions	00000060 alt_instruction_exception_entry
00058a98 g       *ABS*	00000000 __CTOR_LIST__
0007d090 g       *ABS*	00000000 __alt_stack_pointer
000574b0 g     F .text	0000007c alt_avalon_timer_sc_init
0004d244 g     F .text	00000064 .hidden __clzsi2
00056e28 g     F .text	000002c4 altera_avalon_jtag_uart_write
00044878 g     F .text	00000004 __sfp_lock_acquire
00045918 g     F .text	000000e4 memchr
0004f7c8 g     F .text	00000054 OS_MemClr
000404a8 g     F .text	000022dc ___vfprintf_internal_r
000581e4 g     F .text	0000015c OSTaskStkInit
0004026c g     F .text	000000a0 task1
000449dc g     F .text	00000310 _free_r
00044efc g     F .text	00000010 __locale_mb_cur_max
0004ee38 g     F .text	00000198 OS_EventTaskRdy
000588e4 g     F .text	00000180 __call_exitprocs
0005c6b8 g     O .bss	00000001 OSCPUUsage
0005c660 g     O .bss	00000004 __mlocale_changed
0005aa10 g     O .rwdata	00000004 __malloc_sbrk_base
00040230 g     F .text	0000003c _start
0004030c g     F .text	00000084 task2
0005c6ec g     O .bss	00000004 _alt_tick_rate
00053048 g     F .text	0000028c OSQPend
00055cf4 g     F .text	00000104 OSTimeDly
000464a8 g     F .text	00000148 __lshift
0005c6f0 g     O .bss	00000004 _alt_nticks
0004d8c0 g     F .text	00000104 read
00056354 g     F .text	0000006c alt_sys_init
000587cc g     F .text	00000118 __register_exitproc
0005c6b9 g     O .bss	00000001 OSTaskCtr
00057308 g     F .text	0000006c altera_avalon_mutex_unlock
00081000 g       *ABS*	00000000 __alt_mem_SHARED_MEMORY
00055df8 g     F .text	0000017c OSTimeDlyHMSM
000460dc g     F .text	0000028c __multiply
00056a14 g     F .text	00000068 altera_avalon_jtag_uart_close
0004a9dc g     F .text	00000028 .hidden __mulsi3
00058f38 g       *ABS*	00000000 __ram_rwdata_start
00058a98 g       *ABS*	00000000 __ram_rodata_start
0005c6f8 g     O .bss	00000028 __malloc_current_mallinfo
0005aa4a g     O .rwdata	00000002 OSEventMax
000469bc g     F .text	0000014c __d2b
00054268 g     F .text	00000110 OSSemPost
0004e9dc g     F .text	000000dc OSSchedUnlock
000563c0 g     F .text	00000060 altera_avalon_jtag_uart_read_fd
00058574 g     F .text	000000f4 alt_get_fd
0005c6bc g     O .bss	00000004 OSMemFreeList
0004eb28 g     F .text	000000b0 OSStatInit
00051360 g     F .text	000000c4 OSFlagQuery
0005aa80 g     O .rwdata	00000002 OSTaskCreateExtEn
000487f4 g     F .text	00000054 _close_r
00058750 g     F .text	0000007c memcmp
0004ee18 g     F .text	00000020 OS_Dummy
00056480 g     F .text	00000050 altera_avalon_jtag_uart_close_fd
00063a44 g       *ABS*	00000000 __alt_stack_base
000564d0 g     F .text	00000054 altera_avalon_jtag_uart_ioctl_fd
0004285c g     F .text	00000154 __swsetup_r
00061ec0 g     O .bss	000001e0 OSQTbl
0004b2b0 g     F .text	000009d0 .hidden __divdf3
00044738 g     F .text	00000118 __sfp
00046c20 g     F .text	00000078 __copybits
000593d4 g     O .rwdata	00000408 __malloc_av_
00044884 g     F .text	00000004 __sinit_lock_release
0005c6c0 g     O .bss	00000004 OSTCBHighRdy
0004bed8 g     F .text	0000086c .hidden __muldf3
00046dec g     F .text	00000054 __sread
0005c6c4 g     O .bss	00000004 OSQFreeList
0005846c g     F .text	00000108 alt_find_file
000576b4 g     F .text	000000a4 alt_dev_llist_insert
0004dd58 g     F .text	00000120 __malloc_lock
0004da48 g     F .text	000000b0 sbrk
0004e064 g     F .text	00000140 OSEventNameSet
0004447c g     F .text	0000005c _fflush_r
00048848 g     F .text	000000dc _calloc_r
0005c6c8 g     O .bss	00000001 OSRdyGrp
0005c658 g       *ABS*	00000000 __bss_start
00045b44 g     F .text	00000128 memset
00040390 g     F .text	000000ac main
0005c684 g     O .bss	00000004 alt_envp
0005c668 g     O .bss	00000004 __malloc_max_total_mem
00056420 g     F .text	00000060 altera_avalon_jtag_uart_write_fd
00049a68 g     F .text	00000018 __swbuf
00058df8 g     O .rodata	00000100 OSUnMapTbl
0005aa7a g     O .rwdata	00000002 OSSemEn
00050fcc g     F .text	00000394 OSFlagPost
00046f20 g     F .text	00000008 __sclose
0007d090 g       *ABS*	00000000 __alt_heap_limit
00048a14 g     F .text	00000014 fclose
0004efd0 g     F .text	00000110 OS_EventTaskWait
0005e720 g     O .bss	00002000 task2_stk
0004fbb8 g     F .text	000000cc OS_TaskStatStkChk
0005721c g     F .text	0000006c altera_avalon_mutex_lock
0005514c g     F .text	00000150 OSTaskDelReq
00042bd8 g     F .text	00001688 _dtoa_r
0004510c g     F .text	0000080c _malloc_r
00049bdc g     F .text	00000030 __ascii_wctomb
0005aa30 g     O .rwdata	00000004 alt_errno
0004eab8 g     F .text	00000070 OSStart
0004dcf8 g     F .text	00000060 __env_unlock
00044cec g     F .text	000000c4 _fwalk
000555e8 g     F .text	000001d4 OSTaskResume
00052864 g     F .text	000000e8 OSMemQuery
0005aa8c g     O .rwdata	00000002 OSTaskStatEn
0005aa66 g     O .rwdata	00000002 OSMemMax
000535a8 g     F .text	00000170 OSQPostFront
0004a828 g     F .text	00000084 .hidden __divsi3
0005c6c9 g     O .bss	00000003 OSRdyTbl
0005aa40 g     O .rwdata	00000002 OSDebugEn
000448b8 g     F .text	00000124 _malloc_trim_r
00058a98 g       *ABS*	00000000 __CTOR_END__
0005aa58 g     O .rwdata	00000002 OSFlagNodeSize
0005aaa0 g     O .rwdata	00000002 OSTmrCfgMax
00046f28 g     F .text	000000dc strcmp
00052b64 g     F .text	000001ac OSQCreate
0005529c g     F .text	00000198 OSTaskNameGet
00058a98 g       *ABS*	00000000 __flash_rodata_start
00053718 g     F .text	0000020c OSQPostOpt
0004ebd8 g     F .text	00000220 OSTimeTick
0005aa88 g     O .rwdata	00000002 OSTaskMax
00058a98 g       *ABS*	00000000 __DTOR_LIST__
00053bd8 g     F .text	000000d8 OSSemCreate
0005aaac g     O .rwdata	00000002 OSTmrWheelSize
0004bc80 g     F .text	00000088 .hidden __nedf2
0005aa82 g     O .rwdata	00000002 OSTaskDelEn
00054378 g     F .text	00000110 OSSemQuery
00052d10 g     F .text	00000280 OSQDel
000532d4 g     F .text	0000016c OSQPendAbort
0005631c g     F .text	00000038 alt_irq_init
0004d9c4 g     F .text	00000084 alt_release_fd
00058cdc g     O .rodata	00000100 .hidden __clz_tab
0005c65c g     O .bss	00000004 _PathLocale
00058704 g     F .text	00000014 atexit
00048794 g     F .text	00000060 _write_r
0004e950 g     F .text	0000008c OSSchedLock
00044f2c g     F .text	00000018 setlocale
000503f0 g     F .text	00000108 OSFlagCreate
0005aa08 g     O .rwdata	00000004 _impure_ptr
0005c67c g     O .bss	00000004 alt_argc
00044260 g     F .text	0000021c __sflush_r
000577b8 g     F .text	00000060 _do_dtors
00044f18 g     F .text	00000008 __locale_cjk_lang
0005aa52 g     O .rwdata	00000002 OSEventMultiEn
000504f8 g     F .text	00000248 OSFlagDel
0005c6cc g     O .bss	00000004 OSEventFreeList
00040020 g       .exceptions	00000000 alt_irq_entry
00051ddc g     F .text	0000016c OSMboxPendAbort
0004684c g     F .text	00000064 __ulp
000509b4 g     F .text	000005b8 OSFlagPend
0005aa9e g     O .rwdata	00000002 OSTmrEn
000448a0 g     F .text	00000018 __fp_unlock_all
0005aa1c g     O .rwdata	00000008 alt_fs_list
0004f9c8 g     F .text	00000074 OS_StrCopy
0005aa68 g     O .rwdata	00000002 OSMemNameSize
00058408 g     F .text	00000020 OSInitHookEnd
00040020 g       *ABS*	00000000 __ram_exceptions_start
0005aa94 g     O .rwdata	00000002 OSTCBPrioTblMax
00044f44 g     F .text	0000000c localeconv
0005aa90 g     O .rwdata	00000002 OSTaskStatStkChkEn
00051894 g     F .text	000000d4 OSMboxCreate
000578c8 g     F .text	00000050 alt_ic_isr_register
0005aa64 g     O .rwdata	00000002 OSMemEn
0005aa6e g     O .rwdata	00000002 OSMutexEn
0005aac8 g       *ABS*	00000000 _edata
00063a44 g       *ABS*	00000000 _end
0005c6d0 g     O .bss	00000001 OSIntNesting
00048a28 g     F .text	00000164 __fputwc
00040230 g       *ABS*	00000000 __ram_exceptions_end
00056a7c g     F .text	000000f0 altera_avalon_jtag_uart_ioctl
0005c658 g     O .bss	00000004 SWBox1
00055f74 g     F .text	000001d4 OSTimeDlyResume
00050868 g     F .text	0000014c OSFlagNameSet
00051ba8 g     F .text	00000234 OSMboxPend
000557bc g     F .text	000001c0 OSTaskStkChk
000579a0 g     F .text	0000008c alt_ic_irq_disable
0005aa6a g     O .rwdata	00000002 OSMemSize
00046e48 g     F .text	0000007c __swrite
0005aa14 g     O .rwdata	00000004 __malloc_trim_threshold
00044f0c g     F .text	0000000c __locale_msgcharset
0005c6d4 g     O .bss	00000004 OSTCBCur
00058718 g     F .text	00000038 exit
0005aa6c g     O .rwdata	00000002 OSMemTblSize
00044db0 g     F .text	000000c4 _fwalk_reent
00046650 g     F .text	000001fc __mdiff
0004a8ac g     F .text	00000074 .hidden __modsi3
000517fc g     F .text	00000098 OSMboxAccept
0007d090 g       *ABS*	00000000 __alt_data_end
00040020 g     F .exceptions	00000000 alt_exception
0004487c g     F .text	00000004 __sfp_lock_release
0004e7b4 g     F .text	00000058 OSInit
00055b60 g     F .text	00000124 OSTaskQuery
00053a80 g     F .text	000000a8 OS_QInit
0004fa3c g     F .text	00000054 OS_StrLen
00052678 g     F .text	00000114 OSMemNameSet
0005aa86 g     O .rwdata	00000002 OSTaskProfileEn
0005c6d8 g     O .bss	00000004 OSTime
000620a0 g     O .bss	00000800 OSTaskIdleStk
00058a64 g     F .text	00000034 _exit
00052058 g     F .text	0000015c OSMboxPostOpt
0005752c g     F .text	0000012c alt_alarm_start
00050740 g     F .text	00000128 OSFlagNameGet
00056148 g     F .text	0000005c OSTimeGet
00044f50 g     F .text	000001bc __smakebuf_r
00047004 g     F .text	00000098 strlen
00058388 g     F .text	00000020 OSTaskSwHook
00057df0 g     F .text	0000015c open
000628a0 g     O .bss	00000b40 OSEventTbl
0004bd08 g     F .text	000000dc .hidden __gedf2
000633e0 g     O .bss	00000510 OSTCBTbl
00054488 g     F .text	00000100 OSSemSet
0005aa18 g     O .rwdata	00000004 __wctomb
00047198 g     F .text	00000018 __sprint_r
000578a8 g     F .text	00000020 alt_icache_flush_all
0005aabc g     O .rwdata	00000004 alt_priority_mask
00053cb0 g     F .text	00000240 OSSemDel
0005c6dc g     O .bss	00000004 OSFlagFreeList
00057918 g     F .text	00000088 alt_ic_irq_enable
0005aa4c g     O .rwdata	00000002 OSEventNameSize
00051968 g     F .text	00000240 OSMboxDel
00042784 g     F .text	0000001c __vfprintf_internal
0005c6e0 g     O .bss	00000001 OSStatRdy
000571f8 g     F .text	00000024 altera_avalon_mutex_close
000638f0 g     O .bss	00000054 OSTCBPrioTbl
00049c0c g     F .text	0000005c _wctomb_r
0004dc34 g     F .text	000000c4 __env_lock
0005aa92 g     O .rwdata	00000002 OSTaskSwHookEn
0004c744 g     F .text	000008fc .hidden __subdf3
00045ff0 g     F .text	000000b0 __lo0bits
0005aac0 g     O .rwdata	00000008 alt_alarm_list
0005aa5a g     O .rwdata	00000002 OSFlagWidth
00057758 g     F .text	00000060 _do_ctors
00049b1c g     F .text	000000c0 wcrtomb
0004d2e4 g     F .text	000000d8 close
0005c68c g     O .bss	00000004 alt_envsem
0005c6e4 g     O .bss	00000004 OSIdleCtrRun
0004edf8 g     F .text	00000020 OSVersion
0005aaa4 g     O .rwdata	00000002 OSTmrCfgWheelSize
0004d62c g     F .text	00000084 alt_load
00055c84 g     F .text	00000070 OS_TaskStkClr
0005aa7e g     O .rwdata	00000002 OSTaskCreateEn
0004f3e8 g     F .text	00000068 OS_EventWaitListInit
00048bb0 g     F .text	00000080 fputwc
00058428 g     F .text	00000020 OSTaskIdleHook
00044880 g     F .text	00000004 __sinit_lock_acquire
00045d3c g     F .text	00000148 __multadd
0005597c g     F .text	000001e4 OSTaskSuspend
00045d14 g     F .text	00000028 _Bfree
0004fa90 g     F .text	0000005c OS_TaskIdle
0005aaaa g     O .rwdata	00000002 OSTmrTblSize
00053924 g     F .text	0000015c OSQQuery



Disassembly of section .entry:

00040000 <__reset>:
 * Jump to the _start entry point in the .text section if reset code
 * is allowed or if optimizing for RTL simulation.
 */
#if defined(ALT_ALLOW_CODE_AT_RESET) || defined(ALT_SIM_OPTIMIZE)
    /* Jump to the _start entry point in the .text section. */
    movhi r1, %hi(_start)
   40000:	00400134 	movhi	at,4
    ori r1, r1, %lo(_start)
   40004:	08408c14 	ori	at,at,560
    jmp r1
   40008:	0800683a 	jmp	at
	...

Disassembly of section .exceptions:

00040020 <alt_exception>:

#else /* ALT_EXCEPTION_STACK disabled */
        /* 
         * Reserve space on normal stack for registers about to be pushed.
         */
        addi  sp, sp, -76
   40020:	deffed04 	addi	sp,sp,-76
         * documentation for details).
         *
         * Leave a gap in the stack frame at 4(sp) for the muldiv handler to
         * store zero into.
         */
        stw   ra,  0(sp)
   40024:	dfc00015 	stw	ra,0(sp)
        stw   r1,   8(sp)
   40028:	d8400215 	stw	at,8(sp)
        stw   r2,  12(sp)
   4002c:	d8800315 	stw	r2,12(sp)
        stw   r3,  16(sp)
   40030:	d8c00415 	stw	r3,16(sp)
        stw   r4,  20(sp)
   40034:	d9000515 	stw	r4,20(sp)
        stw   r5,  24(sp)
   40038:	d9400615 	stw	r5,24(sp)
        stw   r6,  28(sp)
   4003c:	d9800715 	stw	r6,28(sp)
        stw   r7,  32(sp)
   40040:	d9c00815 	stw	r7,32(sp)
        rdctl r5, estatus   /* Read early to avoid usage stall */
   40044:	000b307a 	rdctl	r5,estatus
        stw   r8,  36(sp)
   40048:	da000915 	stw	r8,36(sp)
        stw   r9,  40(sp)
   4004c:	da400a15 	stw	r9,40(sp)
        stw   r10, 44(sp)
   40050:	da800b15 	stw	r10,44(sp)
        stw   r11, 48(sp)
   40054:	dac00c15 	stw	r11,48(sp)
        stw   r12, 52(sp)
   40058:	db000d15 	stw	r12,52(sp)
        stw   r13, 56(sp)
   4005c:	db400e15 	stw	r13,56(sp)
        stw   r14, 60(sp)
   40060:	db800f15 	stw	r14,60(sp)
        stw   r15, 64(sp)
   40064:	dbc01015 	stw	r15,64(sp)
        /*
         * ea-4 contains the address of the instruction being executed
         * when the exception occured. For interrupt exceptions, we will
         * will be re-issue the isntruction. Store it in 72(sp)
         */
        stw   r5,  68(sp)  /* estatus */
   40068:	d9401115 	stw	r5,68(sp)
        addi  r15, ea, -4  /* instruction that caused exception */
   4006c:	ebffff04 	addi	r15,ea,-4
        stw   r15,  72(sp)
   40070:	dbc01215 	stw	r15,72(sp)
#else
        /*
         * Test to see if the exception was a software exception or caused 
         * by an external interrupt, and vector accordingly.
         */
        rdctl r4, ipending
   40074:	0009313a 	rdctl	r4,ipending
        andi  r2, r5, 1
   40078:	2880004c 	andi	r2,r5,1
        beq   r2, zero, .Lnot_irq
   4007c:	10000326 	beq	r2,zero,4008c <alt_exception+0x6c>
        beq   r4, zero, .Lnot_irq
   40080:	20000226 	beq	r4,zero,4008c <alt_exception+0x6c>
        /*
         * Now that all necessary registers have been preserved, call 
         * alt_irq_handler() to process the interrupts.
         */

        call alt_irq_handler
   40084:	00400fc0 	call	400fc <alt_irq_handler>

        .section .exceptions.irqreturn, "xa"

        br    .Lexception_exit
   40088:	00000706 	br	400a8 <alt_exception+0x88>
         * upon completion, so we write ea (address of instruction *after*
         * the one where the exception occured) into 72(sp). The actual
         * instruction that caused the exception is written in r2, which these
         * handlers will utilize.
         */
        stw ea, 72(sp) /* EA is PC+4 so will skip over instruction causing exception */
   4008c:	df401215 	stw	ea,72(sp)
.Lunknown_16bit:
        addi.n r4, r4, 2 /* Need PC+2 to skip over instruction causing exception */
        stw r4, 72(sp)

#else /* CDX is not Enabled and all instructions are 32bits */
        ldw r2, -4(ea) /* Instruction value that caused exception */
   40090:	e8bfff17 	ldw	r2,-4(ea)
         * debugger is present) or go into an infinite loop since the
         * handling behavior is undefined; in that case we will not return here.
         */

        /* Load exception-causing address as first argument (r4) */
        addi   r4, ea, -4
   40094:	e93fff04 	addi	r4,ea,-4

        /* Call the instruction-exception entry */
        call   alt_instruction_exception_entry
   40098:	00401d00 	call	401d0 <alt_instruction_exception_entry>
         * instruction
         *
         * Return code was 0: Skip. The instruction after the exception is
         * already stored in 72(sp).
         */
        bne   r2, r0, .Lexception_exit
   4009c:	1000021e 	bne	r2,zero,400a8 <alt_exception+0x88>

        /*
         * Otherwise, modify 72(sp) to re-issue the instruction that caused the
         * exception.
         */
        addi  r15, ea, -4  /* instruction that caused exception */
   400a0:	ebffff04 	addi	r15,ea,-4
        stw   r15,  72(sp)
   400a4:	dbc01215 	stw	r15,72(sp)
        /* 
         * Restore the saved registers, so that all general purpose registers 
         * have been restored to their state at the time the interrupt occured.
         */

        ldw   r5,  68(sp)
   400a8:	d9401117 	ldw	r5,68(sp)
        ldw   ea,  72(sp)  /* This becomes the PC once eret is executed */
   400ac:	df401217 	ldw	ea,72(sp)
        ldw   ra,   0(sp)
   400b0:	dfc00017 	ldw	ra,0(sp)

        wrctl estatus, r5
   400b4:	2801707a 	wrctl	estatus,r5

        ldw   r1,   8(sp)
   400b8:	d8400217 	ldw	at,8(sp)
        ldw   r2,  12(sp)
   400bc:	d8800317 	ldw	r2,12(sp)
        ldw   r3,  16(sp)
   400c0:	d8c00417 	ldw	r3,16(sp)
        ldw   r4,  20(sp)
   400c4:	d9000517 	ldw	r4,20(sp)
        ldw   r5,  24(sp)
   400c8:	d9400617 	ldw	r5,24(sp)
        ldw   r6,  28(sp)
   400cc:	d9800717 	ldw	r6,28(sp)
        ldw   r7,  32(sp)
   400d0:	d9c00817 	ldw	r7,32(sp)

#if defined(ALT_EXCEPTION_STACK) && defined(ALT_STACK_CHECK)
        ldw   et, %gprel(alt_exception_old_stack_limit)(gp)
#endif

        ldw   r8,  36(sp)
   400d4:	da000917 	ldw	r8,36(sp)
        ldw   r9,  40(sp)
   400d8:	da400a17 	ldw	r9,40(sp)
        ldw   r10, 44(sp)
   400dc:	da800b17 	ldw	r10,44(sp)
        ldw   r11, 48(sp)
   400e0:	dac00c17 	ldw	r11,48(sp)
        ldw   r12, 52(sp)
   400e4:	db000d17 	ldw	r12,52(sp)
        ldw   r13, 56(sp)
   400e8:	db400e17 	ldw	r13,56(sp)
        ldw   r14, 60(sp)
   400ec:	db800f17 	ldw	r14,60(sp)
        ldw   r15, 64(sp)
   400f0:	dbc01017 	ldw	r15,64(sp)
        stw   et, %gprel(alt_stack_limit_value)(gp)
        stw   zero, %gprel(alt_exception_old_stack_limit)(gp)
#endif /* ALT_STACK_CHECK */
        ldw   sp,  76(sp)
#else /* ALT_EXCEPTION_STACK disabled */
        addi  sp, sp, 76
   400f4:	dec01304 	addi	sp,sp,76

        /*
         * Return to the interrupted instruction.
         */

        eret
   400f8:	ef80083a 	eret

000400fc <alt_irq_handler>:
 * instruction is present if the macro ALT_CI_INTERRUPT_VECTOR defined.
 */

void alt_irq_handler (void) __attribute__ ((section (".exceptions")));
void alt_irq_handler (void)
{
   400fc:	defff904 	addi	sp,sp,-28
   40100:	dfc00615 	stw	ra,24(sp)
   40104:	df000515 	stw	fp,20(sp)
   40108:	df000504 	addi	fp,sp,20
  
  /*
   * Notify the operating system that we are at interrupt level.
   */ 
  
  ALT_OS_INT_ENTER();
   4010c:	004e80c0 	call	4e80c <OSIntEnter>
#ifndef NIOS2_EIC_PRESENT
static ALT_INLINE alt_u32 ALT_ALWAYS_INLINE alt_irq_pending (void)
{
  alt_u32 active;

  NIOS2_READ_IPENDING (active);
   40110:	0005313a 	rdctl	r2,ipending
   40114:	e0bffe15 	stw	r2,-8(fp)

  return active;
   40118:	e0bffe17 	ldw	r2,-8(fp)
   * Consider the case where the high priority interupt is asserted during
   * the interrupt entry sequence for a lower priority interrupt to see why
   * this is the case.
   */

  active = alt_irq_pending ();
   4011c:	e0bffb15 	stw	r2,-20(fp)

  do
  {
    i = 0;
   40120:	e03ffd15 	stw	zero,-12(fp)
    mask = 1;
   40124:	00800044 	movi	r2,1
   40128:	e0bffc15 	stw	r2,-16(fp)
     * called to clear the interrupt condition.
     */

    do
    {
      if (active & mask)
   4012c:	e0fffb17 	ldw	r3,-20(fp)
   40130:	e0bffc17 	ldw	r2,-16(fp)
   40134:	1884703a 	and	r2,r3,r2
   40138:	10001426 	beq	r2,zero,4018c <alt_irq_handler+0x90>
      { 
#ifdef ALT_ENHANCED_INTERRUPT_API_PRESENT
        alt_irq[i].handler(alt_irq[i].context); 
   4013c:	008001b4 	movhi	r2,6
   40140:	108e5104 	addi	r2,r2,14660
   40144:	e0fffd17 	ldw	r3,-12(fp)
   40148:	180690fa 	slli	r3,r3,3
   4014c:	10c5883a 	add	r2,r2,r3
   40150:	10c00017 	ldw	r3,0(r2)
   40154:	008001b4 	movhi	r2,6
   40158:	108e5104 	addi	r2,r2,14660
   4015c:	e13ffd17 	ldw	r4,-12(fp)
   40160:	200890fa 	slli	r4,r4,3
   40164:	1105883a 	add	r2,r2,r4
   40168:	10800104 	addi	r2,r2,4
   4016c:	10800017 	ldw	r2,0(r2)
   40170:	1009883a 	mov	r4,r2
   40174:	183ee83a 	callr	r3
#else
        alt_irq[i].handler(alt_irq[i].context, i); 
#endif
        break;
   40178:	0001883a 	nop
#ifndef NIOS2_EIC_PRESENT
static ALT_INLINE alt_u32 ALT_ALWAYS_INLINE alt_irq_pending (void)
{
  alt_u32 active;

  NIOS2_READ_IPENDING (active);
   4017c:	0005313a 	rdctl	r2,ipending
   40180:	e0bfff15 	stw	r2,-4(fp)

  return active;
   40184:	e0bfff17 	ldw	r2,-4(fp)
   40188:	00000706 	br	401a8 <alt_irq_handler+0xac>
      }
      mask <<= 1;
   4018c:	e0bffc17 	ldw	r2,-16(fp)
   40190:	1085883a 	add	r2,r2,r2
   40194:	e0bffc15 	stw	r2,-16(fp)
      i++;
   40198:	e0bffd17 	ldw	r2,-12(fp)
   4019c:	10800044 	addi	r2,r2,1
   401a0:	e0bffd15 	stw	r2,-12(fp)

    } while (1);
   401a4:	003fe106 	br	4012c <__alt_mem_SHARED_MEMORY+0xfffbf12c>

    active = alt_irq_pending ();
   401a8:	e0bffb15 	stw	r2,-20(fp)
    
  } while (active);
   401ac:	e0bffb17 	ldw	r2,-20(fp)
   401b0:	103fdb1e 	bne	r2,zero,40120 <__alt_mem_SHARED_MEMORY+0xfffbf120>

  /*
   * Notify the operating system that interrupt processing is complete.
   */ 

  ALT_OS_INT_EXIT();
   401b4:	004e8580 	call	4e858 <OSIntExit>
}
   401b8:	0001883a 	nop
   401bc:	e037883a 	mov	sp,fp
   401c0:	dfc00117 	ldw	ra,4(sp)
   401c4:	df000017 	ldw	fp,0(sp)
   401c8:	dec00204 	addi	sp,sp,8
   401cc:	f800283a 	ret

000401d0 <alt_instruction_exception_entry>:
 * that handler if it has been registered. Absent a handler, it will
 * break break or hang as discussed below.
 */
int 
alt_instruction_exception_entry (alt_u32 exception_pc)
{
   401d0:	defffb04 	addi	sp,sp,-20
   401d4:	dfc00415 	stw	ra,16(sp)
   401d8:	df000315 	stw	fp,12(sp)
   401dc:	df000304 	addi	fp,sp,12
   401e0:	e13fff15 	stw	r4,-4(fp)
  cause = ( (cause & NIOS2_EXCEPTION_REG_CAUSE_MASK) >>
              NIOS2_EXCEPTION_REG_CAUSE_OFST );

  NIOS2_READ_BADADDR(badaddr);
#else
  cause = NIOS2_EXCEPTION_CAUSE_NOT_PRESENT;
   401e4:	00bfffc4 	movi	r2,-1
   401e8:	e0bffd15 	stw	r2,-12(fp)
  badaddr = 0;
   401ec:	e03ffe15 	stw	zero,-8(fp)
#endif /* NIOS2_HAS_EXTRA_EXCEPTION_INFO */

  if(alt_instruction_exception_handler) {
   401f0:	d0a73c17 	ldw	r2,-25360(gp)
   401f4:	10000726 	beq	r2,zero,40214 <alt_instruction_exception_entry+0x44>
     * Call handler. Its return value indicates whether the exception-causing
     * instruction should be re-issued. The code that called us,
     * alt_eceptions_entry.S, will look at this value and adjust the ea
     * register as necessary
     */
    return alt_instruction_exception_handler(cause, exception_pc, badaddr);
   401f8:	d0a73c17 	ldw	r2,-25360(gp)
   401fc:	e0fffd17 	ldw	r3,-12(fp)
   40200:	e1bffe17 	ldw	r6,-8(fp)
   40204:	e17fff17 	ldw	r5,-4(fp)
   40208:	1809883a 	mov	r4,r3
   4020c:	103ee83a 	callr	r2
   40210:	00000206 	br	4021c <alt_instruction_exception_entry+0x4c>
   *    (a peripheral which negates its interrupt output before its
   *    interrupt handler has been executed will cause spurious interrupts)
   */
  else {
#ifdef NIOS2_HAS_DEBUG_STUB
    NIOS2_BREAK();
   40214:	003da03a 	break	0
      ;
#endif /* NIOS2_HAS_DEBUG_STUB */
  }

  /* We should not get here. Remove compiler warning. */
  return NIOS2_EXCEPTION_RETURN_REISSUE_INST;
   40218:	0005883a 	mov	r2,zero
}
   4021c:	e037883a 	mov	sp,fp
   40220:	dfc00117 	ldw	ra,4(sp)
   40224:	df000017 	ldw	fp,0(sp)
   40228:	dec00204 	addi	sp,sp,8
   4022c:	f800283a 	ret

Disassembly of section .text:

00040230 <_start>:

    /*
     * Now that the caches are initialized, set up the stack pointer and global pointer.
     * The values provided by the linker are assumed to be correctly aligned.
     */
    movhi sp, %hi(__alt_stack_pointer)
   40230:	06c001f4 	movhi	sp,7
    ori sp, sp, %lo(__alt_stack_pointer)
   40234:	def42414 	ori	sp,sp,53392
    movhi gp, %hi(_gp)
   40238:	068001b4 	movhi	gp,6
    ori gp, gp, %lo(_gp)
   4023c:	d68a8114 	ori	gp,gp,10756
 */
#ifndef ALT_SIM_OPTIMIZE
    /* Log that the BSS is about to be cleared. */
    ALT_LOG_PUTS(alt_log_msg_bss)

    movhi r2, %hi(__bss_start)
   40240:	00800174 	movhi	r2,5
    ori r2, r2, %lo(__bss_start)
   40244:	10b19614 	ori	r2,r2,50776

    movhi r3, %hi(__bss_end)
   40248:	00c001b4 	movhi	r3,6
    ori r3, r3, %lo(__bss_end)
   4024c:	18ce9114 	ori	r3,r3,14916

    beq r2, r3, 1f
   40250:	10c00326 	beq	r2,r3,40260 <_start+0x30>

0:
    stw zero, (r2)
   40254:	10000015 	stw	zero,0(r2)
    addi r2, r2, 4
   40258:	10800104 	addi	r2,r2,4
    bltu r2, r3, 0b
   4025c:	10fffd36 	bltu	r2,r3,40254 <__alt_mem_SHARED_MEMORY+0xfffbf254>
     * section aren't defined until alt_load() has been called).
     */
    mov   et, zero
#endif

    call alt_load
   40260:	004d62c0 	call	4d62c <alt_load>

    /* Log that alt_main is about to be called. */
    ALT_LOG_PUTS(alt_log_msg_alt_main)

    /* Call the C entry point. It should never return. */
    call alt_main
   40264:	004d7c80 	call	4d7c8 <alt_main>

00040268 <alt_after_alt_main>:

    /* Wait in infinite loop in case alt_main does return. */
alt_after_alt_main:
    br alt_after_alt_main
   40268:	003fff06 	br	40268 <__alt_mem_SHARED_MEMORY+0xfffbf268>

0004026c <task1>:
#define TASK2_PRIORITY      2

OS_EVENT *SWBox1;


void task1(void* pdata) {
   4026c:	defffa04 	addi	sp,sp,-24
   40270:	dfc00515 	stw	ra,20(sp)
   40274:	df000415 	stw	fp,16(sp)
   40278:	df000404 	addi	fp,sp,16
   4027c:	e13fff15 	stw	r4,-4(fp)
	int sw_state_flag = 0;
   40280:	e03ffc15 	stw	zero,-16(fp)
	INT8U err;
    int* sw;

	while (1) {
		*sw = IORD(SW_SLIDERS_BASE, 0);
   40284:	e0fffe17 	ldw	r3,-8(fp)
   40288:	00800234 	movhi	r2,8
   4028c:	108c1404 	addi	r2,r2,12368
   40290:	10800037 	ldwio	r2,0(r2)
   40294:	18800015 	stw	r2,0(r3)

		if (sw_state_flag != *sw) {
   40298:	e0bffe17 	ldw	r2,-8(fp)
   4029c:	10c00017 	ldw	r3,0(r2)
   402a0:	e0bffc17 	ldw	r2,-16(fp)
   402a4:	18801326 	beq	r3,r2,402f4 <task1+0x88>
			err = OSMboxPostOpt(SWBox1, &sw, OS_POST_OPT_BROADCAST);
   402a8:	d0a71517 	ldw	r2,-25516(gp)
   402ac:	e0fffe04 	addi	r3,fp,-8
   402b0:	01800044 	movi	r6,1
   402b4:	180b883a 	mov	r5,r3
   402b8:	1009883a 	mov	r4,r2
   402bc:	00520580 	call	52058 <OSMboxPostOpt>
   402c0:	e0bffd05 	stb	r2,-12(fp)
			if (err == NULL)
   402c4:	e0bffd03 	ldbu	r2,-12(fp)
   402c8:	1000041e 	bne	r2,zero,402dc <task1+0x70>
				printf("task1: Wys³ano wiadomosc");
   402cc:	010001b4 	movhi	r4,6
   402d0:	2122a604 	addi	r4,r4,-30056
   402d4:	004046c0 	call	4046c <printf>
   402d8:	00000306 	br	402e8 <task1+0x7c>
			else
				printf("task1: W OSMBox znajduj¹ siê nieodebrane dane");
   402dc:	010001b4 	movhi	r4,6
   402e0:	2122ad04 	addi	r4,r4,-30028
   402e4:	004046c0 	call	4046c <printf>
			sw_state_flag = *sw;
   402e8:	e0bffe17 	ldw	r2,-8(fp)
   402ec:	10800017 	ldw	r2,0(r2)
   402f0:	e0bffc15 	stw	r2,-16(fp)
		}

		OSTimeDlyHMSM(0, 0, 3, 0);
   402f4:	000f883a 	mov	r7,zero
   402f8:	018000c4 	movi	r6,3
   402fc:	000b883a 	mov	r5,zero
   40300:	0009883a 	mov	r4,zero
   40304:	0055df80 	call	55df8 <OSTimeDlyHMSM>
	}
   40308:	003fde06 	br	40284 <__alt_mem_SHARED_MEMORY+0xfffbf284>

0004030c <task2>:

}

void task2(void* pdata) {
   4030c:	defffb04 	addi	sp,sp,-20
   40310:	dfc00415 	stw	ra,16(sp)
   40314:	df000315 	stw	fp,12(sp)
   40318:	df000304 	addi	fp,sp,12
   4031c:	e13fff15 	stw	r4,-4(fp)
    int *num;
    INT8U err;

	while (1) {
		//    returns null if err was set to OS_TIMEOUT
		num = OSMboxPend(SWBox1, 10, &err);
   40320:	d0a71517 	ldw	r2,-25516(gp)
   40324:	e0fffe04 	addi	r3,fp,-8
   40328:	180d883a 	mov	r6,r3
   4032c:	01400284 	movi	r5,10
   40330:	1009883a 	mov	r4,r2
   40334:	0051ba80 	call	51ba8 <OSMboxPend>
   40338:	e0bffd15 	stw	r2,-12(fp)

		if (err != NULL) {
   4033c:	e0bffe03 	ldbu	r2,-8(fp)
   40340:	10803fcc 	andi	r2,r2,255
   40344:	10000926 	beq	r2,zero,4036c <task2+0x60>
			printf("task2: Wys³ano dane do modu³u");
   40348:	010001b4 	movhi	r4,6
   4034c:	2122b904 	addi	r4,r4,-29980
   40350:	004046c0 	call	4046c <printf>
			 IOWR(SHARED_MEMORY_BASE, 0, *num);
   40354:	e0bffd17 	ldw	r2,-12(fp)
   40358:	10c00017 	ldw	r3,0(r2)
   4035c:	00800234 	movhi	r2,8
   40360:	10840004 	addi	r2,r2,4096
   40364:	10c00035 	stwio	r3,0(r2)
   40368:	00000306 	br	40378 <task2+0x6c>

		} else
			printf("task2: TIMEOUT");
   4036c:	010001b4 	movhi	r4,6
   40370:	2122c104 	addi	r4,r4,-29948
   40374:	004046c0 	call	4046c <printf>

		OSTimeDlyHMSM(0, 0, 3, 0);
   40378:	000f883a 	mov	r7,zero
   4037c:	018000c4 	movi	r6,3
   40380:	000b883a 	mov	r5,zero
   40384:	0009883a 	mov	r4,zero
   40388:	0055df80 	call	55df8 <OSTimeDlyHMSM>
	}
   4038c:	003fe406 	br	40320 <__alt_mem_SHARED_MEMORY+0xfffbf320>

00040390 <main>:
}
/* The main function creates two task and starts multi-tasking */
int main(void) {
   40390:	defff904 	addi	sp,sp,-28
   40394:	dfc00615 	stw	ra,24(sp)
   40398:	df000515 	stw	fp,20(sp)
   4039c:	df000504 	addi	fp,sp,20

	OSTaskCreateExt(task1,
   403a0:	d8000415 	stw	zero,16(sp)
   403a4:	d8000315 	stw	zero,12(sp)
   403a8:	00820004 	movi	r2,2048
   403ac:	d8800215 	stw	r2,8(sp)
   403b0:	008001b4 	movhi	r2,6
   403b4:	10b1c804 	addi	r2,r2,-14560
   403b8:	d8800115 	stw	r2,4(sp)
   403bc:	00800044 	movi	r2,1
   403c0:	d8800015 	stw	r2,0(sp)
   403c4:	01c00044 	movi	r7,1
   403c8:	018001b4 	movhi	r6,6
   403cc:	31b9c704 	addi	r6,r6,-6372
   403d0:	000b883a 	mov	r5,zero
   403d4:	01000134 	movhi	r4,4
   403d8:	21009b04 	addi	r4,r4,620
   403dc:	0054c240 	call	54c24 <OSTaskCreateExt>
	TASK1_PRIORITY,
	TASK1_PRIORITY, task1_stk,
	TASK_STACKSIZE,
	NULL, 0);

	OSTaskCreateExt(task2,
   403e0:	d8000415 	stw	zero,16(sp)
   403e4:	d8000315 	stw	zero,12(sp)
   403e8:	00820004 	movi	r2,2048
   403ec:	d8800215 	stw	r2,8(sp)
   403f0:	008001b4 	movhi	r2,6
   403f4:	10b9c804 	addi	r2,r2,-6368
   403f8:	d8800115 	stw	r2,4(sp)
   403fc:	00800084 	movi	r2,2
   40400:	d8800015 	stw	r2,0(sp)
   40404:	01c00084 	movi	r7,2
   40408:	018001b4 	movhi	r6,6
   4040c:	3181c704 	addi	r6,r6,1820
   40410:	000b883a 	mov	r5,zero
   40414:	01000134 	movhi	r4,4
   40418:	2100c304 	addi	r4,r4,780
   4041c:	0054c240 	call	54c24 <OSTaskCreateExt>
	NULL, (void *) &task2_stk[TASK_STACKSIZE - 1],
	TASK2_PRIORITY,
	TASK2_PRIORITY, task2_stk,
	TASK_STACKSIZE,
	NULL, 0);
	OSStart();
   40420:	004eab80 	call	4eab8 <OSStart>
	return 0;
   40424:	0005883a 	mov	r2,zero
}
   40428:	e037883a 	mov	sp,fp
   4042c:	dfc00117 	ldw	ra,4(sp)
   40430:	df000017 	ldw	fp,0(sp)
   40434:	dec00204 	addi	sp,sp,8
   40438:	f800283a 	ret

0004043c <_printf_r>:
   4043c:	defffd04 	addi	sp,sp,-12
   40440:	2805883a 	mov	r2,r5
   40444:	dfc00015 	stw	ra,0(sp)
   40448:	d9800115 	stw	r6,4(sp)
   4044c:	d9c00215 	stw	r7,8(sp)
   40450:	21400217 	ldw	r5,8(r4)
   40454:	d9c00104 	addi	r7,sp,4
   40458:	100d883a 	mov	r6,r2
   4045c:	00404a80 	call	404a8 <___vfprintf_internal_r>
   40460:	dfc00017 	ldw	ra,0(sp)
   40464:	dec00304 	addi	sp,sp,12
   40468:	f800283a 	ret

0004046c <printf>:
   4046c:	defffc04 	addi	sp,sp,-16
   40470:	dfc00015 	stw	ra,0(sp)
   40474:	d9400115 	stw	r5,4(sp)
   40478:	d9800215 	stw	r6,8(sp)
   4047c:	d9c00315 	stw	r7,12(sp)
   40480:	008001b4 	movhi	r2,6
   40484:	10aa8204 	addi	r2,r2,-22008
   40488:	10800017 	ldw	r2,0(r2)
   4048c:	200b883a 	mov	r5,r4
   40490:	d9800104 	addi	r6,sp,4
   40494:	11000217 	ldw	r4,8(r2)
   40498:	00427840 	call	42784 <__vfprintf_internal>
   4049c:	dfc00017 	ldw	ra,0(sp)
   404a0:	dec00404 	addi	sp,sp,16
   404a4:	f800283a 	ret

000404a8 <___vfprintf_internal_r>:
   404a8:	deffb804 	addi	sp,sp,-288
   404ac:	dfc04715 	stw	ra,284(sp)
   404b0:	ddc04515 	stw	r23,276(sp)
   404b4:	dd404315 	stw	r21,268(sp)
   404b8:	d9002d15 	stw	r4,180(sp)
   404bc:	282f883a 	mov	r23,r5
   404c0:	302b883a 	mov	r21,r6
   404c4:	d9c02e15 	stw	r7,184(sp)
   404c8:	df004615 	stw	fp,280(sp)
   404cc:	dd804415 	stw	r22,272(sp)
   404d0:	dd004215 	stw	r20,264(sp)
   404d4:	dcc04115 	stw	r19,260(sp)
   404d8:	dc804015 	stw	r18,256(sp)
   404dc:	dc403f15 	stw	r17,252(sp)
   404e0:	dc003e15 	stw	r16,248(sp)
   404e4:	0044f200 	call	44f20 <_localeconv_r>
   404e8:	10800017 	ldw	r2,0(r2)
   404ec:	1009883a 	mov	r4,r2
   404f0:	d8803415 	stw	r2,208(sp)
   404f4:	00470040 	call	47004 <strlen>
   404f8:	d8803715 	stw	r2,220(sp)
   404fc:	d8802d17 	ldw	r2,180(sp)
   40500:	10000226 	beq	r2,zero,4050c <___vfprintf_internal_r+0x64>
   40504:	10800e17 	ldw	r2,56(r2)
   40508:	1000fb26 	beq	r2,zero,408f8 <___vfprintf_internal_r+0x450>
   4050c:	b880030b 	ldhu	r2,12(r23)
   40510:	10c8000c 	andi	r3,r2,8192
   40514:	1800061e 	bne	r3,zero,40530 <___vfprintf_internal_r+0x88>
   40518:	b9001917 	ldw	r4,100(r23)
   4051c:	00f7ffc4 	movi	r3,-8193
   40520:	10880014 	ori	r2,r2,8192
   40524:	20c6703a 	and	r3,r4,r3
   40528:	b880030d 	sth	r2,12(r23)
   4052c:	b8c01915 	stw	r3,100(r23)
   40530:	10c0020c 	andi	r3,r2,8
   40534:	1800c326 	beq	r3,zero,40844 <___vfprintf_internal_r+0x39c>
   40538:	b8c00417 	ldw	r3,16(r23)
   4053c:	1800c126 	beq	r3,zero,40844 <___vfprintf_internal_r+0x39c>
   40540:	1080068c 	andi	r2,r2,26
   40544:	00c00284 	movi	r3,10
   40548:	10c0c626 	beq	r2,r3,40864 <___vfprintf_internal_r+0x3bc>
   4054c:	d8c00404 	addi	r3,sp,16
   40550:	050001b4 	movhi	r20,6
   40554:	d9001e04 	addi	r4,sp,120
   40558:	a522d584 	addi	r20,r20,-29866
   4055c:	d8c01e15 	stw	r3,120(sp)
   40560:	d8002015 	stw	zero,128(sp)
   40564:	d8001f15 	stw	zero,124(sp)
   40568:	d8003315 	stw	zero,204(sp)
   4056c:	d8003615 	stw	zero,216(sp)
   40570:	d8003815 	stw	zero,224(sp)
   40574:	1811883a 	mov	r8,r3
   40578:	d8003915 	stw	zero,228(sp)
   4057c:	d8003a15 	stw	zero,232(sp)
   40580:	d8002f15 	stw	zero,188(sp)
   40584:	d9002815 	stw	r4,160(sp)
   40588:	a8800007 	ldb	r2,0(r21)
   4058c:	10028b26 	beq	r2,zero,40fbc <___vfprintf_internal_r+0xb14>
   40590:	00c00944 	movi	r3,37
   40594:	a823883a 	mov	r17,r21
   40598:	10c0021e 	bne	r2,r3,405a4 <___vfprintf_internal_r+0xfc>
   4059c:	00001406 	br	405f0 <___vfprintf_internal_r+0x148>
   405a0:	10c00326 	beq	r2,r3,405b0 <___vfprintf_internal_r+0x108>
   405a4:	8c400044 	addi	r17,r17,1
   405a8:	88800007 	ldb	r2,0(r17)
   405ac:	103ffc1e 	bne	r2,zero,405a0 <__alt_mem_SHARED_MEMORY+0xfffbf5a0>
   405b0:	8d61c83a 	sub	r16,r17,r21
   405b4:	80000e26 	beq	r16,zero,405f0 <___vfprintf_internal_r+0x148>
   405b8:	d8c02017 	ldw	r3,128(sp)
   405bc:	d8801f17 	ldw	r2,124(sp)
   405c0:	45400015 	stw	r21,0(r8)
   405c4:	1c07883a 	add	r3,r3,r16
   405c8:	10800044 	addi	r2,r2,1
   405cc:	d8c02015 	stw	r3,128(sp)
   405d0:	44000115 	stw	r16,4(r8)
   405d4:	d8801f15 	stw	r2,124(sp)
   405d8:	00c001c4 	movi	r3,7
   405dc:	1880a916 	blt	r3,r2,40884 <___vfprintf_internal_r+0x3dc>
   405e0:	42000204 	addi	r8,r8,8
   405e4:	d9402f17 	ldw	r5,188(sp)
   405e8:	2c0b883a 	add	r5,r5,r16
   405ec:	d9402f15 	stw	r5,188(sp)
   405f0:	88800007 	ldb	r2,0(r17)
   405f4:	1000aa26 	beq	r2,zero,408a0 <___vfprintf_internal_r+0x3f8>
   405f8:	8d400044 	addi	r21,r17,1
   405fc:	8c400047 	ldb	r17,1(r17)
   40600:	0021883a 	mov	r16,zero
   40604:	00bfffc4 	movi	r2,-1
   40608:	0025883a 	mov	r18,zero
   4060c:	dc002905 	stb	r16,164(sp)
   40610:	d8002785 	stb	zero,158(sp)
   40614:	d8002b05 	stb	zero,172(sp)
   40618:	d8802a15 	stw	r2,168(sp)
   4061c:	d8003115 	stw	zero,196(sp)
   40620:	04c01604 	movi	r19,88
   40624:	05800244 	movi	r22,9
   40628:	9021883a 	mov	r16,r18
   4062c:	4039883a 	mov	fp,r8
   40630:	ad400044 	addi	r21,r21,1
   40634:	88bff804 	addi	r2,r17,-32
   40638:	98833236 	bltu	r19,r2,41304 <___vfprintf_internal_r+0xe5c>
   4063c:	100490ba 	slli	r2,r2,2
   40640:	00c00134 	movhi	r3,4
   40644:	18c19504 	addi	r3,r3,1620
   40648:	10c5883a 	add	r2,r2,r3
   4064c:	10800017 	ldw	r2,0(r2)
   40650:	1000683a 	jmp	r2
   40654:	000411fc 	xorhi	zero,zero,4167
   40658:	00041304 	movi	zero,4172
   4065c:	00041304 	movi	zero,4172
   40660:	0004121c 	xori	zero,zero,4168
   40664:	00041304 	movi	zero,4172
   40668:	00041304 	movi	zero,4172
   4066c:	00041304 	movi	zero,4172
   40670:	00041304 	movi	zero,4172
   40674:	00041304 	movi	zero,4172
   40678:	00041304 	movi	zero,4172
   4067c:	00040904 	movi	zero,4132
   40680:	0004110c 	andi	zero,zero,4164
   40684:	00041304 	movi	zero,4172
   40688:	000407c8 	cmpgei	zero,zero,4127
   4068c:	00040928 	cmpgeui	zero,zero,4132
   40690:	00041304 	movi	zero,4172
   40694:	00040978 	rdprs	zero,zero,4133
   40698:	00040984 	movi	zero,4134
   4069c:	00040984 	movi	zero,4134
   406a0:	00040984 	movi	zero,4134
   406a4:	00040984 	movi	zero,4134
   406a8:	00040984 	movi	zero,4134
   406ac:	00040984 	movi	zero,4134
   406b0:	00040984 	movi	zero,4134
   406b4:	00040984 	movi	zero,4134
   406b8:	00040984 	movi	zero,4134
   406bc:	00041304 	movi	zero,4172
   406c0:	00041304 	movi	zero,4172
   406c4:	00041304 	movi	zero,4172
   406c8:	00041304 	movi	zero,4172
   406cc:	00041304 	movi	zero,4172
   406d0:	00041304 	movi	zero,4172
   406d4:	00041304 	movi	zero,4172
   406d8:	00041304 	movi	zero,4172
   406dc:	00041304 	movi	zero,4172
   406e0:	00041304 	movi	zero,4172
   406e4:	000409c0 	call	409c <OSCtxSw_SWITCH_PC+0x405c>
   406e8:	00040a88 	cmpgei	zero,zero,4138
   406ec:	00041304 	movi	zero,4172
   406f0:	00040a88 	cmpgei	zero,zero,4138
   406f4:	00041304 	movi	zero,4172
   406f8:	00041304 	movi	zero,4172
   406fc:	00041304 	movi	zero,4172
   40700:	00041304 	movi	zero,4172
   40704:	00040b34 	movhi	zero,4140
   40708:	00041304 	movi	zero,4172
   4070c:	00041304 	movi	zero,4172
   40710:	00040b40 	call	40b4 <OSCtxSw_SWITCH_PC+0x4074>
   40714:	00041304 	movi	zero,4172
   40718:	00041304 	movi	zero,4172
   4071c:	00041304 	movi	zero,4172
   40720:	00041304 	movi	zero,4172
   40724:	00041304 	movi	zero,4172
   40728:	00040fc4 	movi	zero,4159
   4072c:	00041304 	movi	zero,4172
   40730:	00041304 	movi	zero,4172
   40734:	00041030 	cmpltui	zero,zero,4160
   40738:	00041304 	movi	zero,4172
   4073c:	00041304 	movi	zero,4172
   40740:	00041304 	movi	zero,4172
   40744:	00041304 	movi	zero,4172
   40748:	00041304 	movi	zero,4172
   4074c:	00041304 	movi	zero,4172
   40750:	00041304 	movi	zero,4172
   40754:	00041304 	movi	zero,4172
   40758:	00041304 	movi	zero,4172
   4075c:	00041304 	movi	zero,4172
   40760:	000412a8 	cmpgeui	zero,zero,4170
   40764:	00041228 	cmpgeui	zero,zero,4168
   40768:	00040a88 	cmpgei	zero,zero,4138
   4076c:	00040a88 	cmpgei	zero,zero,4138
   40770:	00040a88 	cmpgei	zero,zero,4138
   40774:	00041248 	cmpgei	zero,zero,4169
   40778:	00041228 	cmpgeui	zero,zero,4168
   4077c:	00041304 	movi	zero,4172
   40780:	00041304 	movi	zero,4172
   40784:	00041254 	movui	zero,4169
   40788:	00041304 	movi	zero,4172
   4078c:	00041268 	cmpgeui	zero,zero,4169
   40790:	000410ec 	andhi	zero,zero,4163
   40794:	000407d4 	movui	zero,4127
   40798:	00041124 	muli	zero,zero,4164
   4079c:	00041304 	movi	zero,4172
   407a0:	00041130 	cmpltui	zero,zero,4164
   407a4:	00041304 	movi	zero,4172
   407a8:	00041194 	movui	zero,4166
   407ac:	00041304 	movi	zero,4172
   407b0:	00041304 	movi	zero,4172
   407b4:	000411b4 	movhi	zero,4166
   407b8:	d8c03117 	ldw	r3,196(sp)
   407bc:	d8802e15 	stw	r2,184(sp)
   407c0:	00c7c83a 	sub	r3,zero,r3
   407c4:	d8c03115 	stw	r3,196(sp)
   407c8:	84000114 	ori	r16,r16,4
   407cc:	ac400007 	ldb	r17,0(r21)
   407d0:	003f9706 	br	40630 <__alt_mem_SHARED_MEMORY+0xfffbf630>
   407d4:	00800c04 	movi	r2,48
   407d8:	d8802705 	stb	r2,156(sp)
   407dc:	00801e04 	movi	r2,120
   407e0:	d8802745 	stb	r2,157(sp)
   407e4:	d9002a17 	ldw	r4,168(sp)
   407e8:	d8802e17 	ldw	r2,184(sp)
   407ec:	d8002785 	stb	zero,158(sp)
   407f0:	e011883a 	mov	r8,fp
   407f4:	10c00104 	addi	r3,r2,4
   407f8:	14c00017 	ldw	r19,0(r2)
   407fc:	002d883a 	mov	r22,zero
   40800:	80800094 	ori	r2,r16,2
   40804:	2002ca16 	blt	r4,zero,41330 <___vfprintf_internal_r+0xe88>
   40808:	00bfdfc4 	movi	r2,-129
   4080c:	80a4703a 	and	r18,r16,r2
   40810:	d8c02e15 	stw	r3,184(sp)
   40814:	94800094 	ori	r18,r18,2
   40818:	9802b41e 	bne	r19,zero,412ec <___vfprintf_internal_r+0xe44>
   4081c:	014001b4 	movhi	r5,6
   40820:	2962ce04 	addi	r5,r5,-29896
   40824:	d9403915 	stw	r5,228(sp)
   40828:	04401e04 	movi	r17,120
   4082c:	d8802a17 	ldw	r2,168(sp)
   40830:	0039883a 	mov	fp,zero
   40834:	1001fa26 	beq	r2,zero,41020 <___vfprintf_internal_r+0xb78>
   40838:	0027883a 	mov	r19,zero
   4083c:	002d883a 	mov	r22,zero
   40840:	00021906 	br	410a8 <___vfprintf_internal_r+0xc00>
   40844:	d9002d17 	ldw	r4,180(sp)
   40848:	b80b883a 	mov	r5,r23
   4084c:	004285c0 	call	4285c <__swsetup_r>
   40850:	1005dc1e 	bne	r2,zero,41fc4 <___vfprintf_internal_r+0x1b1c>
   40854:	b880030b 	ldhu	r2,12(r23)
   40858:	00c00284 	movi	r3,10
   4085c:	1080068c 	andi	r2,r2,26
   40860:	10ff3a1e 	bne	r2,r3,4054c <__alt_mem_SHARED_MEMORY+0xfffbf54c>
   40864:	b880038f 	ldh	r2,14(r23)
   40868:	103f3816 	blt	r2,zero,4054c <__alt_mem_SHARED_MEMORY+0xfffbf54c>
   4086c:	d9c02e17 	ldw	r7,184(sp)
   40870:	d9002d17 	ldw	r4,180(sp)
   40874:	a80d883a 	mov	r6,r21
   40878:	b80b883a 	mov	r5,r23
   4087c:	00427a00 	call	427a0 <__sbprintf>
   40880:	00001106 	br	408c8 <___vfprintf_internal_r+0x420>
   40884:	d9002d17 	ldw	r4,180(sp)
   40888:	d9801e04 	addi	r6,sp,120
   4088c:	b80b883a 	mov	r5,r23
   40890:	00471980 	call	47198 <__sprint_r>
   40894:	1000081e 	bne	r2,zero,408b8 <___vfprintf_internal_r+0x410>
   40898:	da000404 	addi	r8,sp,16
   4089c:	003f5106 	br	405e4 <__alt_mem_SHARED_MEMORY+0xfffbf5e4>
   408a0:	d8802017 	ldw	r2,128(sp)
   408a4:	10000426 	beq	r2,zero,408b8 <___vfprintf_internal_r+0x410>
   408a8:	d9002d17 	ldw	r4,180(sp)
   408ac:	d9801e04 	addi	r6,sp,120
   408b0:	b80b883a 	mov	r5,r23
   408b4:	00471980 	call	47198 <__sprint_r>
   408b8:	b880030b 	ldhu	r2,12(r23)
   408bc:	1080100c 	andi	r2,r2,64
   408c0:	1005c01e 	bne	r2,zero,41fc4 <___vfprintf_internal_r+0x1b1c>
   408c4:	d8802f17 	ldw	r2,188(sp)
   408c8:	dfc04717 	ldw	ra,284(sp)
   408cc:	df004617 	ldw	fp,280(sp)
   408d0:	ddc04517 	ldw	r23,276(sp)
   408d4:	dd804417 	ldw	r22,272(sp)
   408d8:	dd404317 	ldw	r21,268(sp)
   408dc:	dd004217 	ldw	r20,264(sp)
   408e0:	dcc04117 	ldw	r19,260(sp)
   408e4:	dc804017 	ldw	r18,256(sp)
   408e8:	dc403f17 	ldw	r17,252(sp)
   408ec:	dc003e17 	ldw	r16,248(sp)
   408f0:	dec04804 	addi	sp,sp,288
   408f4:	f800283a 	ret
   408f8:	d9002d17 	ldw	r4,180(sp)
   408fc:	00448680 	call	44868 <__sinit>
   40900:	003f0206 	br	4050c <__alt_mem_SHARED_MEMORY+0xfffbf50c>
   40904:	d9002e17 	ldw	r4,184(sp)
   40908:	d9402e17 	ldw	r5,184(sp)
   4090c:	21000017 	ldw	r4,0(r4)
   40910:	28800104 	addi	r2,r5,4
   40914:	d9003115 	stw	r4,196(sp)
   40918:	203fa716 	blt	r4,zero,407b8 <__alt_mem_SHARED_MEMORY+0xfffbf7b8>
   4091c:	d8802e15 	stw	r2,184(sp)
   40920:	ac400007 	ldb	r17,0(r21)
   40924:	003f4206 	br	40630 <__alt_mem_SHARED_MEMORY+0xfffbf630>
   40928:	ac400007 	ldb	r17,0(r21)
   4092c:	01000a84 	movi	r4,42
   40930:	a8c00044 	addi	r3,r21,1
   40934:	89075826 	beq	r17,r4,42698 <___vfprintf_internal_r+0x21f0>
   40938:	8cbff404 	addi	r18,r17,-48
   4093c:	b486ae36 	bltu	r22,r18,423f8 <___vfprintf_internal_r+0x1f50>
   40940:	0009883a 	mov	r4,zero
   40944:	1823883a 	mov	r17,r3
   40948:	01400284 	movi	r5,10
   4094c:	004a9dc0 	call	4a9dc <__mulsi3>
   40950:	88c00007 	ldb	r3,0(r17)
   40954:	1489883a 	add	r4,r2,r18
   40958:	8d400044 	addi	r21,r17,1
   4095c:	1cbff404 	addi	r18,r3,-48
   40960:	a823883a 	mov	r17,r21
   40964:	b4bff82e 	bgeu	r22,r18,40948 <__alt_mem_SHARED_MEMORY+0xfffbf948>
   40968:	1823883a 	mov	r17,r3
   4096c:	2005f616 	blt	r4,zero,42148 <___vfprintf_internal_r+0x1ca0>
   40970:	d9002a15 	stw	r4,168(sp)
   40974:	003f2f06 	br	40634 <__alt_mem_SHARED_MEMORY+0xfffbf634>
   40978:	84002014 	ori	r16,r16,128
   4097c:	ac400007 	ldb	r17,0(r21)
   40980:	003f2b06 	br	40630 <__alt_mem_SHARED_MEMORY+0xfffbf630>
   40984:	8cbff404 	addi	r18,r17,-48
   40988:	d8003115 	stw	zero,196(sp)
   4098c:	0009883a 	mov	r4,zero
   40990:	a823883a 	mov	r17,r21
   40994:	01400284 	movi	r5,10
   40998:	004a9dc0 	call	4a9dc <__mulsi3>
   4099c:	88c00007 	ldb	r3,0(r17)
   409a0:	9089883a 	add	r4,r18,r2
   409a4:	ad400044 	addi	r21,r21,1
   409a8:	1cbff404 	addi	r18,r3,-48
   409ac:	a823883a 	mov	r17,r21
   409b0:	b4bff82e 	bgeu	r22,r18,40994 <__alt_mem_SHARED_MEMORY+0xfffbf994>
   409b4:	1823883a 	mov	r17,r3
   409b8:	d9003115 	stw	r4,196(sp)
   409bc:	003f1d06 	br	40634 <__alt_mem_SHARED_MEMORY+0xfffbf634>
   409c0:	8025883a 	mov	r18,r16
   409c4:	dc002903 	ldbu	r16,164(sp)
   409c8:	e011883a 	mov	r8,fp
   409cc:	84003fcc 	andi	r16,r16,255
   409d0:	8007531e 	bne	r16,zero,42720 <___vfprintf_internal_r+0x2278>
   409d4:	94800414 	ori	r18,r18,16
   409d8:	9080080c 	andi	r2,r18,32
   409dc:	1003a326 	beq	r2,zero,4186c <___vfprintf_internal_r+0x13c4>
   409e0:	d9002e17 	ldw	r4,184(sp)
   409e4:	20800117 	ldw	r2,4(r4)
   409e8:	24c00017 	ldw	r19,0(r4)
   409ec:	21000204 	addi	r4,r4,8
   409f0:	d9002e15 	stw	r4,184(sp)
   409f4:	102d883a 	mov	r22,r2
   409f8:	10047316 	blt	r2,zero,41bc8 <___vfprintf_internal_r+0x1720>
   409fc:	d9002a17 	ldw	r4,168(sp)
   40a00:	df002783 	ldbu	fp,158(sp)
   40a04:	2003e416 	blt	r4,zero,41998 <___vfprintf_internal_r+0x14f0>
   40a08:	00ffdfc4 	movi	r3,-129
   40a0c:	9d84b03a 	or	r2,r19,r22
   40a10:	90e4703a 	and	r18,r18,r3
   40a14:	10018026 	beq	r2,zero,41018 <___vfprintf_internal_r+0xb70>
   40a18:	b003ab26 	beq	r22,zero,418c8 <___vfprintf_internal_r+0x1420>
   40a1c:	dc402915 	stw	r17,164(sp)
   40a20:	dc001e04 	addi	r16,sp,120
   40a24:	b023883a 	mov	r17,r22
   40a28:	402d883a 	mov	r22,r8
   40a2c:	9809883a 	mov	r4,r19
   40a30:	880b883a 	mov	r5,r17
   40a34:	01800284 	movi	r6,10
   40a38:	000f883a 	mov	r7,zero
   40a3c:	004a2640 	call	4a264 <__umoddi3>
   40a40:	10800c04 	addi	r2,r2,48
   40a44:	843fffc4 	addi	r16,r16,-1
   40a48:	9809883a 	mov	r4,r19
   40a4c:	880b883a 	mov	r5,r17
   40a50:	80800005 	stb	r2,0(r16)
   40a54:	01800284 	movi	r6,10
   40a58:	000f883a 	mov	r7,zero
   40a5c:	0049c680 	call	49c68 <__udivdi3>
   40a60:	1027883a 	mov	r19,r2
   40a64:	10c4b03a 	or	r2,r2,r3
   40a68:	1823883a 	mov	r17,r3
   40a6c:	103fef1e 	bne	r2,zero,40a2c <__alt_mem_SHARED_MEMORY+0xfffbfa2c>
   40a70:	d8c02817 	ldw	r3,160(sp)
   40a74:	dc402917 	ldw	r17,164(sp)
   40a78:	b011883a 	mov	r8,r22
   40a7c:	1c07c83a 	sub	r3,r3,r16
   40a80:	d8c02b15 	stw	r3,172(sp)
   40a84:	00005f06 	br	40c04 <___vfprintf_internal_r+0x75c>
   40a88:	8025883a 	mov	r18,r16
   40a8c:	dc002903 	ldbu	r16,164(sp)
   40a90:	e011883a 	mov	r8,fp
   40a94:	84003fcc 	andi	r16,r16,255
   40a98:	80071e1e 	bne	r16,zero,42714 <___vfprintf_internal_r+0x226c>
   40a9c:	9080020c 	andi	r2,r18,8
   40aa0:	1004af26 	beq	r2,zero,41d60 <___vfprintf_internal_r+0x18b8>
   40aa4:	d9002e17 	ldw	r4,184(sp)
   40aa8:	d9402e17 	ldw	r5,184(sp)
   40aac:	d8802e17 	ldw	r2,184(sp)
   40ab0:	21000017 	ldw	r4,0(r4)
   40ab4:	29400117 	ldw	r5,4(r5)
   40ab8:	10800204 	addi	r2,r2,8
   40abc:	d9003615 	stw	r4,216(sp)
   40ac0:	d9403815 	stw	r5,224(sp)
   40ac4:	d8802e15 	stw	r2,184(sp)
   40ac8:	d9003617 	ldw	r4,216(sp)
   40acc:	d9403817 	ldw	r5,224(sp)
   40ad0:	da003d15 	stw	r8,244(sp)
   40ad4:	04000044 	movi	r16,1
   40ad8:	0046d240 	call	46d24 <__fpclassifyd>
   40adc:	da003d17 	ldw	r8,244(sp)
   40ae0:	1404441e 	bne	r2,r16,41bf4 <___vfprintf_internal_r+0x174c>
   40ae4:	d9003617 	ldw	r4,216(sp)
   40ae8:	d9403817 	ldw	r5,224(sp)
   40aec:	000d883a 	mov	r6,zero
   40af0:	000f883a 	mov	r7,zero
   40af4:	004bde40 	call	4bde4 <__ledf2>
   40af8:	da003d17 	ldw	r8,244(sp)
   40afc:	1005e316 	blt	r2,zero,4228c <___vfprintf_internal_r+0x1de4>
   40b00:	df002783 	ldbu	fp,158(sp)
   40b04:	008011c4 	movi	r2,71
   40b08:	1445580e 	bge	r2,r17,4206c <___vfprintf_internal_r+0x1bc4>
   40b0c:	040001b4 	movhi	r16,6
   40b10:	8422c604 	addi	r16,r16,-29928
   40b14:	00c000c4 	movi	r3,3
   40b18:	00bfdfc4 	movi	r2,-129
   40b1c:	d8c02915 	stw	r3,164(sp)
   40b20:	90a4703a 	and	r18,r18,r2
   40b24:	d8c02b15 	stw	r3,172(sp)
   40b28:	d8002a15 	stw	zero,168(sp)
   40b2c:	d8003215 	stw	zero,200(sp)
   40b30:	00003a06 	br	40c1c <___vfprintf_internal_r+0x774>
   40b34:	84000214 	ori	r16,r16,8
   40b38:	ac400007 	ldb	r17,0(r21)
   40b3c:	003ebc06 	br	40630 <__alt_mem_SHARED_MEMORY+0xfffbf630>
   40b40:	8025883a 	mov	r18,r16
   40b44:	dc002903 	ldbu	r16,164(sp)
   40b48:	e011883a 	mov	r8,fp
   40b4c:	84003fcc 	andi	r16,r16,255
   40b50:	8007001e 	bne	r16,zero,42754 <___vfprintf_internal_r+0x22ac>
   40b54:	94800414 	ori	r18,r18,16
   40b58:	9080080c 	andi	r2,r18,32
   40b5c:	1002fa26 	beq	r2,zero,41748 <___vfprintf_internal_r+0x12a0>
   40b60:	d9002e17 	ldw	r4,184(sp)
   40b64:	d9402a17 	ldw	r5,168(sp)
   40b68:	d8002785 	stb	zero,158(sp)
   40b6c:	20800204 	addi	r2,r4,8
   40b70:	24c00017 	ldw	r19,0(r4)
   40b74:	25800117 	ldw	r22,4(r4)
   40b78:	2804b116 	blt	r5,zero,41e40 <___vfprintf_internal_r+0x1998>
   40b7c:	013fdfc4 	movi	r4,-129
   40b80:	9d86b03a 	or	r3,r19,r22
   40b84:	d8802e15 	stw	r2,184(sp)
   40b88:	9124703a 	and	r18,r18,r4
   40b8c:	1802fb1e 	bne	r3,zero,4177c <___vfprintf_internal_r+0x12d4>
   40b90:	d8c02a17 	ldw	r3,168(sp)
   40b94:	0039883a 	mov	fp,zero
   40b98:	1805e526 	beq	r3,zero,42330 <___vfprintf_internal_r+0x1e88>
   40b9c:	0027883a 	mov	r19,zero
   40ba0:	002d883a 	mov	r22,zero
   40ba4:	dc001e04 	addi	r16,sp,120
   40ba8:	9806d0fa 	srli	r3,r19,3
   40bac:	b008977a 	slli	r4,r22,29
   40bb0:	b02cd0fa 	srli	r22,r22,3
   40bb4:	9cc001cc 	andi	r19,r19,7
   40bb8:	98800c04 	addi	r2,r19,48
   40bbc:	843fffc4 	addi	r16,r16,-1
   40bc0:	20e6b03a 	or	r19,r4,r3
   40bc4:	80800005 	stb	r2,0(r16)
   40bc8:	9d86b03a 	or	r3,r19,r22
   40bcc:	183ff61e 	bne	r3,zero,40ba8 <__alt_mem_SHARED_MEMORY+0xfffbfba8>
   40bd0:	90c0004c 	andi	r3,r18,1
   40bd4:	18014126 	beq	r3,zero,410dc <___vfprintf_internal_r+0xc34>
   40bd8:	10803fcc 	andi	r2,r2,255
   40bdc:	1080201c 	xori	r2,r2,128
   40be0:	10bfe004 	addi	r2,r2,-128
   40be4:	00c00c04 	movi	r3,48
   40be8:	10c13c26 	beq	r2,r3,410dc <___vfprintf_internal_r+0xc34>
   40bec:	80ffffc5 	stb	r3,-1(r16)
   40bf0:	d8c02817 	ldw	r3,160(sp)
   40bf4:	80bfffc4 	addi	r2,r16,-1
   40bf8:	1021883a 	mov	r16,r2
   40bfc:	1887c83a 	sub	r3,r3,r2
   40c00:	d8c02b15 	stw	r3,172(sp)
   40c04:	d8802b17 	ldw	r2,172(sp)
   40c08:	d9002a17 	ldw	r4,168(sp)
   40c0c:	1100010e 	bge	r2,r4,40c14 <___vfprintf_internal_r+0x76c>
   40c10:	2005883a 	mov	r2,r4
   40c14:	d8802915 	stw	r2,164(sp)
   40c18:	d8003215 	stw	zero,200(sp)
   40c1c:	e7003fcc 	andi	fp,fp,255
   40c20:	e700201c 	xori	fp,fp,128
   40c24:	e73fe004 	addi	fp,fp,-128
   40c28:	e0000326 	beq	fp,zero,40c38 <___vfprintf_internal_r+0x790>
   40c2c:	d8c02917 	ldw	r3,164(sp)
   40c30:	18c00044 	addi	r3,r3,1
   40c34:	d8c02915 	stw	r3,164(sp)
   40c38:	90c0008c 	andi	r3,r18,2
   40c3c:	d8c02c15 	stw	r3,176(sp)
   40c40:	18000326 	beq	r3,zero,40c50 <___vfprintf_internal_r+0x7a8>
   40c44:	d8c02917 	ldw	r3,164(sp)
   40c48:	18c00084 	addi	r3,r3,2
   40c4c:	d8c02915 	stw	r3,164(sp)
   40c50:	90c0210c 	andi	r3,r18,132
   40c54:	d8c03015 	stw	r3,192(sp)
   40c58:	1801c51e 	bne	r3,zero,41370 <___vfprintf_internal_r+0xec8>
   40c5c:	d9003117 	ldw	r4,196(sp)
   40c60:	d8c02917 	ldw	r3,164(sp)
   40c64:	20e7c83a 	sub	r19,r4,r3
   40c68:	04c1c10e 	bge	zero,r19,41370 <___vfprintf_internal_r+0xec8>
   40c6c:	02400404 	movi	r9,16
   40c70:	d8c02017 	ldw	r3,128(sp)
   40c74:	d8801f17 	ldw	r2,124(sp)
   40c78:	4cc52f0e 	bge	r9,r19,42138 <___vfprintf_internal_r+0x1c90>
   40c7c:	014001b4 	movhi	r5,6
   40c80:	2962d984 	addi	r5,r5,-29850
   40c84:	dc403b15 	stw	r17,236(sp)
   40c88:	d9403515 	stw	r5,212(sp)
   40c8c:	9823883a 	mov	r17,r19
   40c90:	482d883a 	mov	r22,r9
   40c94:	9027883a 	mov	r19,r18
   40c98:	070001c4 	movi	fp,7
   40c9c:	8025883a 	mov	r18,r16
   40ca0:	dc002d17 	ldw	r16,180(sp)
   40ca4:	00000306 	br	40cb4 <___vfprintf_internal_r+0x80c>
   40ca8:	8c7ffc04 	addi	r17,r17,-16
   40cac:	42000204 	addi	r8,r8,8
   40cb0:	b440130e 	bge	r22,r17,40d00 <___vfprintf_internal_r+0x858>
   40cb4:	010001b4 	movhi	r4,6
   40cb8:	18c00404 	addi	r3,r3,16
   40cbc:	10800044 	addi	r2,r2,1
   40cc0:	2122d984 	addi	r4,r4,-29850
   40cc4:	41000015 	stw	r4,0(r8)
   40cc8:	45800115 	stw	r22,4(r8)
   40ccc:	d8c02015 	stw	r3,128(sp)
   40cd0:	d8801f15 	stw	r2,124(sp)
   40cd4:	e0bff40e 	bge	fp,r2,40ca8 <__alt_mem_SHARED_MEMORY+0xfffbfca8>
   40cd8:	d9801e04 	addi	r6,sp,120
   40cdc:	b80b883a 	mov	r5,r23
   40ce0:	8009883a 	mov	r4,r16
   40ce4:	00471980 	call	47198 <__sprint_r>
   40ce8:	103ef31e 	bne	r2,zero,408b8 <__alt_mem_SHARED_MEMORY+0xfffbf8b8>
   40cec:	8c7ffc04 	addi	r17,r17,-16
   40cf0:	d8c02017 	ldw	r3,128(sp)
   40cf4:	d8801f17 	ldw	r2,124(sp)
   40cf8:	da000404 	addi	r8,sp,16
   40cfc:	b47fed16 	blt	r22,r17,40cb4 <__alt_mem_SHARED_MEMORY+0xfffbfcb4>
   40d00:	9021883a 	mov	r16,r18
   40d04:	9825883a 	mov	r18,r19
   40d08:	8827883a 	mov	r19,r17
   40d0c:	dc403b17 	ldw	r17,236(sp)
   40d10:	d9403517 	ldw	r5,212(sp)
   40d14:	98c7883a 	add	r3,r19,r3
   40d18:	10800044 	addi	r2,r2,1
   40d1c:	41400015 	stw	r5,0(r8)
   40d20:	44c00115 	stw	r19,4(r8)
   40d24:	d8c02015 	stw	r3,128(sp)
   40d28:	d8801f15 	stw	r2,124(sp)
   40d2c:	010001c4 	movi	r4,7
   40d30:	2082c516 	blt	r4,r2,41848 <___vfprintf_internal_r+0x13a0>
   40d34:	df002787 	ldb	fp,158(sp)
   40d38:	42000204 	addi	r8,r8,8
   40d3c:	e0000c26 	beq	fp,zero,40d70 <___vfprintf_internal_r+0x8c8>
   40d40:	d8801f17 	ldw	r2,124(sp)
   40d44:	d9002784 	addi	r4,sp,158
   40d48:	18c00044 	addi	r3,r3,1
   40d4c:	10800044 	addi	r2,r2,1
   40d50:	41000015 	stw	r4,0(r8)
   40d54:	01000044 	movi	r4,1
   40d58:	41000115 	stw	r4,4(r8)
   40d5c:	d8c02015 	stw	r3,128(sp)
   40d60:	d8801f15 	stw	r2,124(sp)
   40d64:	010001c4 	movi	r4,7
   40d68:	20825e16 	blt	r4,r2,416e4 <___vfprintf_internal_r+0x123c>
   40d6c:	42000204 	addi	r8,r8,8
   40d70:	d8802c17 	ldw	r2,176(sp)
   40d74:	10000c26 	beq	r2,zero,40da8 <___vfprintf_internal_r+0x900>
   40d78:	d8801f17 	ldw	r2,124(sp)
   40d7c:	d9002704 	addi	r4,sp,156
   40d80:	18c00084 	addi	r3,r3,2
   40d84:	10800044 	addi	r2,r2,1
   40d88:	41000015 	stw	r4,0(r8)
   40d8c:	01000084 	movi	r4,2
   40d90:	41000115 	stw	r4,4(r8)
   40d94:	d8c02015 	stw	r3,128(sp)
   40d98:	d8801f15 	stw	r2,124(sp)
   40d9c:	010001c4 	movi	r4,7
   40da0:	20825816 	blt	r4,r2,41704 <___vfprintf_internal_r+0x125c>
   40da4:	42000204 	addi	r8,r8,8
   40da8:	d9003017 	ldw	r4,192(sp)
   40dac:	00802004 	movi	r2,128
   40db0:	2081bb26 	beq	r4,r2,414a0 <___vfprintf_internal_r+0xff8>
   40db4:	d9402a17 	ldw	r5,168(sp)
   40db8:	d8802b17 	ldw	r2,172(sp)
   40dbc:	28adc83a 	sub	r22,r5,r2
   40dc0:	0580310e 	bge	zero,r22,40e88 <___vfprintf_internal_r+0x9e0>
   40dc4:	07000404 	movi	fp,16
   40dc8:	d8801f17 	ldw	r2,124(sp)
   40dcc:	e584360e 	bge	fp,r22,41ea8 <___vfprintf_internal_r+0x1a00>
   40dd0:	014001b4 	movhi	r5,6
   40dd4:	2962d584 	addi	r5,r5,-29866
   40dd8:	dc402a15 	stw	r17,168(sp)
   40ddc:	d9402c15 	stw	r5,176(sp)
   40de0:	b023883a 	mov	r17,r22
   40de4:	04c001c4 	movi	r19,7
   40de8:	a82d883a 	mov	r22,r21
   40dec:	902b883a 	mov	r21,r18
   40df0:	8025883a 	mov	r18,r16
   40df4:	dc002d17 	ldw	r16,180(sp)
   40df8:	00000306 	br	40e08 <___vfprintf_internal_r+0x960>
   40dfc:	8c7ffc04 	addi	r17,r17,-16
   40e00:	42000204 	addi	r8,r8,8
   40e04:	e440110e 	bge	fp,r17,40e4c <___vfprintf_internal_r+0x9a4>
   40e08:	18c00404 	addi	r3,r3,16
   40e0c:	10800044 	addi	r2,r2,1
   40e10:	45000015 	stw	r20,0(r8)
   40e14:	47000115 	stw	fp,4(r8)
   40e18:	d8c02015 	stw	r3,128(sp)
   40e1c:	d8801f15 	stw	r2,124(sp)
   40e20:	98bff60e 	bge	r19,r2,40dfc <__alt_mem_SHARED_MEMORY+0xfffbfdfc>
   40e24:	d9801e04 	addi	r6,sp,120
   40e28:	b80b883a 	mov	r5,r23
   40e2c:	8009883a 	mov	r4,r16
   40e30:	00471980 	call	47198 <__sprint_r>
   40e34:	103ea01e 	bne	r2,zero,408b8 <__alt_mem_SHARED_MEMORY+0xfffbf8b8>
   40e38:	8c7ffc04 	addi	r17,r17,-16
   40e3c:	d8c02017 	ldw	r3,128(sp)
   40e40:	d8801f17 	ldw	r2,124(sp)
   40e44:	da000404 	addi	r8,sp,16
   40e48:	e47fef16 	blt	fp,r17,40e08 <__alt_mem_SHARED_MEMORY+0xfffbfe08>
   40e4c:	9021883a 	mov	r16,r18
   40e50:	a825883a 	mov	r18,r21
   40e54:	b02b883a 	mov	r21,r22
   40e58:	882d883a 	mov	r22,r17
   40e5c:	dc402a17 	ldw	r17,168(sp)
   40e60:	d9002c17 	ldw	r4,176(sp)
   40e64:	1d87883a 	add	r3,r3,r22
   40e68:	10800044 	addi	r2,r2,1
   40e6c:	41000015 	stw	r4,0(r8)
   40e70:	45800115 	stw	r22,4(r8)
   40e74:	d8c02015 	stw	r3,128(sp)
   40e78:	d8801f15 	stw	r2,124(sp)
   40e7c:	010001c4 	movi	r4,7
   40e80:	20821016 	blt	r4,r2,416c4 <___vfprintf_internal_r+0x121c>
   40e84:	42000204 	addi	r8,r8,8
   40e88:	9080400c 	andi	r2,r18,256
   40e8c:	10013a1e 	bne	r2,zero,41378 <___vfprintf_internal_r+0xed0>
   40e90:	d9402b17 	ldw	r5,172(sp)
   40e94:	d8801f17 	ldw	r2,124(sp)
   40e98:	44000015 	stw	r16,0(r8)
   40e9c:	1947883a 	add	r3,r3,r5
   40ea0:	10800044 	addi	r2,r2,1
   40ea4:	41400115 	stw	r5,4(r8)
   40ea8:	d8c02015 	stw	r3,128(sp)
   40eac:	d8801f15 	stw	r2,124(sp)
   40eb0:	010001c4 	movi	r4,7
   40eb4:	2081f516 	blt	r4,r2,4168c <___vfprintf_internal_r+0x11e4>
   40eb8:	42000204 	addi	r8,r8,8
   40ebc:	9480010c 	andi	r18,r18,4
   40ec0:	90003226 	beq	r18,zero,40f8c <___vfprintf_internal_r+0xae4>
   40ec4:	d9403117 	ldw	r5,196(sp)
   40ec8:	d8802917 	ldw	r2,164(sp)
   40ecc:	28a1c83a 	sub	r16,r5,r2
   40ed0:	04002e0e 	bge	zero,r16,40f8c <___vfprintf_internal_r+0xae4>
   40ed4:	04400404 	movi	r17,16
   40ed8:	d8801f17 	ldw	r2,124(sp)
   40edc:	8c04c40e 	bge	r17,r16,421f0 <___vfprintf_internal_r+0x1d48>
   40ee0:	014001b4 	movhi	r5,6
   40ee4:	2962d984 	addi	r5,r5,-29850
   40ee8:	d9403515 	stw	r5,212(sp)
   40eec:	048001c4 	movi	r18,7
   40ef0:	dcc02d17 	ldw	r19,180(sp)
   40ef4:	00000306 	br	40f04 <___vfprintf_internal_r+0xa5c>
   40ef8:	843ffc04 	addi	r16,r16,-16
   40efc:	42000204 	addi	r8,r8,8
   40f00:	8c00130e 	bge	r17,r16,40f50 <___vfprintf_internal_r+0xaa8>
   40f04:	010001b4 	movhi	r4,6
   40f08:	18c00404 	addi	r3,r3,16
   40f0c:	10800044 	addi	r2,r2,1
   40f10:	2122d984 	addi	r4,r4,-29850
   40f14:	41000015 	stw	r4,0(r8)
   40f18:	44400115 	stw	r17,4(r8)
   40f1c:	d8c02015 	stw	r3,128(sp)
   40f20:	d8801f15 	stw	r2,124(sp)
   40f24:	90bff40e 	bge	r18,r2,40ef8 <__alt_mem_SHARED_MEMORY+0xfffbfef8>
   40f28:	d9801e04 	addi	r6,sp,120
   40f2c:	b80b883a 	mov	r5,r23
   40f30:	9809883a 	mov	r4,r19
   40f34:	00471980 	call	47198 <__sprint_r>
   40f38:	103e5f1e 	bne	r2,zero,408b8 <__alt_mem_SHARED_MEMORY+0xfffbf8b8>
   40f3c:	843ffc04 	addi	r16,r16,-16
   40f40:	d8c02017 	ldw	r3,128(sp)
   40f44:	d8801f17 	ldw	r2,124(sp)
   40f48:	da000404 	addi	r8,sp,16
   40f4c:	8c3fed16 	blt	r17,r16,40f04 <__alt_mem_SHARED_MEMORY+0xfffbff04>
   40f50:	d9403517 	ldw	r5,212(sp)
   40f54:	1c07883a 	add	r3,r3,r16
   40f58:	10800044 	addi	r2,r2,1
   40f5c:	41400015 	stw	r5,0(r8)
   40f60:	44000115 	stw	r16,4(r8)
   40f64:	d8c02015 	stw	r3,128(sp)
   40f68:	d8801f15 	stw	r2,124(sp)
   40f6c:	010001c4 	movi	r4,7
   40f70:	2080060e 	bge	r4,r2,40f8c <___vfprintf_internal_r+0xae4>
   40f74:	d9002d17 	ldw	r4,180(sp)
   40f78:	d9801e04 	addi	r6,sp,120
   40f7c:	b80b883a 	mov	r5,r23
   40f80:	00471980 	call	47198 <__sprint_r>
   40f84:	103e4c1e 	bne	r2,zero,408b8 <__alt_mem_SHARED_MEMORY+0xfffbf8b8>
   40f88:	d8c02017 	ldw	r3,128(sp)
   40f8c:	d8803117 	ldw	r2,196(sp)
   40f90:	d9002917 	ldw	r4,164(sp)
   40f94:	1100010e 	bge	r2,r4,40f9c <___vfprintf_internal_r+0xaf4>
   40f98:	2005883a 	mov	r2,r4
   40f9c:	d9402f17 	ldw	r5,188(sp)
   40fa0:	288b883a 	add	r5,r5,r2
   40fa4:	d9402f15 	stw	r5,188(sp)
   40fa8:	1801c01e 	bne	r3,zero,416ac <___vfprintf_internal_r+0x1204>
   40fac:	a8800007 	ldb	r2,0(r21)
   40fb0:	d8001f15 	stw	zero,124(sp)
   40fb4:	da000404 	addi	r8,sp,16
   40fb8:	103d751e 	bne	r2,zero,40590 <__alt_mem_SHARED_MEMORY+0xfffbf590>
   40fbc:	a823883a 	mov	r17,r21
   40fc0:	003d8b06 	br	405f0 <__alt_mem_SHARED_MEMORY+0xfffbf5f0>
   40fc4:	8025883a 	mov	r18,r16
   40fc8:	dc002903 	ldbu	r16,164(sp)
   40fcc:	e011883a 	mov	r8,fp
   40fd0:	84003fcc 	andi	r16,r16,255
   40fd4:	8005e51e 	bne	r16,zero,4276c <___vfprintf_internal_r+0x22c4>
   40fd8:	94800414 	ori	r18,r18,16
   40fdc:	9080080c 	andi	r2,r18,32
   40fe0:	10022b26 	beq	r2,zero,41890 <___vfprintf_internal_r+0x13e8>
   40fe4:	d9002e17 	ldw	r4,184(sp)
   40fe8:	d9402a17 	ldw	r5,168(sp)
   40fec:	d8002785 	stb	zero,158(sp)
   40ff0:	20c00204 	addi	r3,r4,8
   40ff4:	24c00017 	ldw	r19,0(r4)
   40ff8:	25800117 	ldw	r22,4(r4)
   40ffc:	28042e16 	blt	r5,zero,420b8 <___vfprintf_internal_r+0x1c10>
   41000:	013fdfc4 	movi	r4,-129
   41004:	9d84b03a 	or	r2,r19,r22
   41008:	d8c02e15 	stw	r3,184(sp)
   4100c:	9124703a 	and	r18,r18,r4
   41010:	0039883a 	mov	fp,zero
   41014:	103e801e 	bne	r2,zero,40a18 <__alt_mem_SHARED_MEMORY+0xfffbfa18>
   41018:	d9002a17 	ldw	r4,168(sp)
   4101c:	2002e01e 	bne	r4,zero,41ba0 <___vfprintf_internal_r+0x16f8>
   41020:	d8002a15 	stw	zero,168(sp)
   41024:	d8002b15 	stw	zero,172(sp)
   41028:	dc001e04 	addi	r16,sp,120
   4102c:	003ef506 	br	40c04 <__alt_mem_SHARED_MEMORY+0xfffbfc04>
   41030:	8025883a 	mov	r18,r16
   41034:	dc002903 	ldbu	r16,164(sp)
   41038:	e011883a 	mov	r8,fp
   4103c:	84003fcc 	andi	r16,r16,255
   41040:	8005ba1e 	bne	r16,zero,4272c <___vfprintf_internal_r+0x2284>
   41044:	010001b4 	movhi	r4,6
   41048:	2122c904 	addi	r4,r4,-29916
   4104c:	d9003915 	stw	r4,228(sp)
   41050:	9080080c 	andi	r2,r18,32
   41054:	10006126 	beq	r2,zero,411dc <___vfprintf_internal_r+0xd34>
   41058:	d9402e17 	ldw	r5,184(sp)
   4105c:	2cc00017 	ldw	r19,0(r5)
   41060:	2d800117 	ldw	r22,4(r5)
   41064:	29400204 	addi	r5,r5,8
   41068:	d9402e15 	stw	r5,184(sp)
   4106c:	9080004c 	andi	r2,r18,1
   41070:	1001ac26 	beq	r2,zero,41724 <___vfprintf_internal_r+0x127c>
   41074:	9d84b03a 	or	r2,r19,r22
   41078:	10038526 	beq	r2,zero,41e90 <___vfprintf_internal_r+0x19e8>
   4107c:	d8c02a17 	ldw	r3,168(sp)
   41080:	00800c04 	movi	r2,48
   41084:	d8802705 	stb	r2,156(sp)
   41088:	dc402745 	stb	r17,157(sp)
   4108c:	d8002785 	stb	zero,158(sp)
   41090:	90800094 	ori	r2,r18,2
   41094:	18047916 	blt	r3,zero,4227c <___vfprintf_internal_r+0x1dd4>
   41098:	00bfdfc4 	movi	r2,-129
   4109c:	90a4703a 	and	r18,r18,r2
   410a0:	94800094 	ori	r18,r18,2
   410a4:	0039883a 	mov	fp,zero
   410a8:	d9003917 	ldw	r4,228(sp)
   410ac:	dc001e04 	addi	r16,sp,120
   410b0:	988003cc 	andi	r2,r19,15
   410b4:	b006973a 	slli	r3,r22,28
   410b8:	2085883a 	add	r2,r4,r2
   410bc:	9826d13a 	srli	r19,r19,4
   410c0:	10800003 	ldbu	r2,0(r2)
   410c4:	b02cd13a 	srli	r22,r22,4
   410c8:	843fffc4 	addi	r16,r16,-1
   410cc:	1ce6b03a 	or	r19,r3,r19
   410d0:	80800005 	stb	r2,0(r16)
   410d4:	9d84b03a 	or	r2,r19,r22
   410d8:	103ff51e 	bne	r2,zero,410b0 <__alt_mem_SHARED_MEMORY+0xfffc00b0>
   410dc:	d8c02817 	ldw	r3,160(sp)
   410e0:	1c07c83a 	sub	r3,r3,r16
   410e4:	d8c02b15 	stw	r3,172(sp)
   410e8:	003ec606 	br	40c04 <__alt_mem_SHARED_MEMORY+0xfffbfc04>
   410ec:	8025883a 	mov	r18,r16
   410f0:	dc002903 	ldbu	r16,164(sp)
   410f4:	e011883a 	mov	r8,fp
   410f8:	84003fcc 	andi	r16,r16,255
   410fc:	803e9626 	beq	r16,zero,40b58 <__alt_mem_SHARED_MEMORY+0xfffbfb58>
   41100:	d8c02b03 	ldbu	r3,172(sp)
   41104:	d8c02785 	stb	r3,158(sp)
   41108:	003e9306 	br	40b58 <__alt_mem_SHARED_MEMORY+0xfffbfb58>
   4110c:	00c00044 	movi	r3,1
   41110:	d8c02905 	stb	r3,164(sp)
   41114:	00c00ac4 	movi	r3,43
   41118:	d8c02b05 	stb	r3,172(sp)
   4111c:	ac400007 	ldb	r17,0(r21)
   41120:	003d4306 	br	40630 <__alt_mem_SHARED_MEMORY+0xfffbf630>
   41124:	84000814 	ori	r16,r16,32
   41128:	ac400007 	ldb	r17,0(r21)
   4112c:	003d4006 	br	40630 <__alt_mem_SHARED_MEMORY+0xfffbf630>
   41130:	d8802e17 	ldw	r2,184(sp)
   41134:	8025883a 	mov	r18,r16
   41138:	d8002785 	stb	zero,158(sp)
   4113c:	14000017 	ldw	r16,0(r2)
   41140:	e011883a 	mov	r8,fp
   41144:	14c00104 	addi	r19,r2,4
   41148:	80042d26 	beq	r16,zero,42200 <___vfprintf_internal_r+0x1d58>
   4114c:	d8c02a17 	ldw	r3,168(sp)
   41150:	1803e416 	blt	r3,zero,420e4 <___vfprintf_internal_r+0x1c3c>
   41154:	180d883a 	mov	r6,r3
   41158:	000b883a 	mov	r5,zero
   4115c:	8009883a 	mov	r4,r16
   41160:	df003d15 	stw	fp,244(sp)
   41164:	00459180 	call	45918 <memchr>
   41168:	da003d17 	ldw	r8,244(sp)
   4116c:	10046826 	beq	r2,zero,42310 <___vfprintf_internal_r+0x1e68>
   41170:	1405c83a 	sub	r2,r2,r16
   41174:	d8802b15 	stw	r2,172(sp)
   41178:	1003e016 	blt	r2,zero,420fc <___vfprintf_internal_r+0x1c54>
   4117c:	df002783 	ldbu	fp,158(sp)
   41180:	d8802915 	stw	r2,164(sp)
   41184:	dcc02e15 	stw	r19,184(sp)
   41188:	d8002a15 	stw	zero,168(sp)
   4118c:	d8003215 	stw	zero,200(sp)
   41190:	003ea206 	br	40c1c <__alt_mem_SHARED_MEMORY+0xfffbfc1c>
   41194:	8025883a 	mov	r18,r16
   41198:	dc002903 	ldbu	r16,164(sp)
   4119c:	e011883a 	mov	r8,fp
   411a0:	84003fcc 	andi	r16,r16,255
   411a4:	803f8d26 	beq	r16,zero,40fdc <__alt_mem_SHARED_MEMORY+0xfffbffdc>
   411a8:	d8c02b03 	ldbu	r3,172(sp)
   411ac:	d8c02785 	stb	r3,158(sp)
   411b0:	003f8a06 	br	40fdc <__alt_mem_SHARED_MEMORY+0xfffbffdc>
   411b4:	8025883a 	mov	r18,r16
   411b8:	dc002903 	ldbu	r16,164(sp)
   411bc:	e011883a 	mov	r8,fp
   411c0:	84003fcc 	andi	r16,r16,255
   411c4:	8005661e 	bne	r16,zero,42760 <___vfprintf_internal_r+0x22b8>
   411c8:	010001b4 	movhi	r4,6
   411cc:	2122ce04 	addi	r4,r4,-29896
   411d0:	d9003915 	stw	r4,228(sp)
   411d4:	9080080c 	andi	r2,r18,32
   411d8:	103f9f1e 	bne	r2,zero,41058 <__alt_mem_SHARED_MEMORY+0xfffc0058>
   411dc:	9080040c 	andi	r2,r18,16
   411e0:	1002eb26 	beq	r2,zero,41d90 <___vfprintf_internal_r+0x18e8>
   411e4:	d8802e17 	ldw	r2,184(sp)
   411e8:	002d883a 	mov	r22,zero
   411ec:	14c00017 	ldw	r19,0(r2)
   411f0:	10800104 	addi	r2,r2,4
   411f4:	d8802e15 	stw	r2,184(sp)
   411f8:	003f9c06 	br	4106c <__alt_mem_SHARED_MEMORY+0xfffc006c>
   411fc:	d8802b07 	ldb	r2,172(sp)
   41200:	1002e11e 	bne	r2,zero,41d88 <___vfprintf_internal_r+0x18e0>
   41204:	00c00044 	movi	r3,1
   41208:	d8c02905 	stb	r3,164(sp)
   4120c:	00c00804 	movi	r3,32
   41210:	d8c02b05 	stb	r3,172(sp)
   41214:	ac400007 	ldb	r17,0(r21)
   41218:	003d0506 	br	40630 <__alt_mem_SHARED_MEMORY+0xfffbf630>
   4121c:	84000054 	ori	r16,r16,1
   41220:	ac400007 	ldb	r17,0(r21)
   41224:	003d0206 	br	40630 <__alt_mem_SHARED_MEMORY+0xfffbf630>
   41228:	8025883a 	mov	r18,r16
   4122c:	dc002903 	ldbu	r16,164(sp)
   41230:	e011883a 	mov	r8,fp
   41234:	84003fcc 	andi	r16,r16,255
   41238:	803de726 	beq	r16,zero,409d8 <__alt_mem_SHARED_MEMORY+0xfffbf9d8>
   4123c:	d8c02b03 	ldbu	r3,172(sp)
   41240:	d8c02785 	stb	r3,158(sp)
   41244:	003de406 	br	409d8 <__alt_mem_SHARED_MEMORY+0xfffbf9d8>
   41248:	84001014 	ori	r16,r16,64
   4124c:	ac400007 	ldb	r17,0(r21)
   41250:	003cf706 	br	40630 <__alt_mem_SHARED_MEMORY+0xfffbf630>
   41254:	ac400007 	ldb	r17,0(r21)
   41258:	00801b04 	movi	r2,108
   4125c:	88838f26 	beq	r17,r2,4209c <___vfprintf_internal_r+0x1bf4>
   41260:	84000414 	ori	r16,r16,16
   41264:	003cf206 	br	40630 <__alt_mem_SHARED_MEMORY+0xfffbf630>
   41268:	8025883a 	mov	r18,r16
   4126c:	dc002903 	ldbu	r16,164(sp)
   41270:	e011883a 	mov	r8,fp
   41274:	84003fcc 	andi	r16,r16,255
   41278:	80053f1e 	bne	r16,zero,42778 <___vfprintf_internal_r+0x22d0>
   4127c:	9080080c 	andi	r2,r18,32
   41280:	1002d226 	beq	r2,zero,41dcc <___vfprintf_internal_r+0x1924>
   41284:	d9002e17 	ldw	r4,184(sp)
   41288:	d9402f17 	ldw	r5,188(sp)
   4128c:	20800017 	ldw	r2,0(r4)
   41290:	2807d7fa 	srai	r3,r5,31
   41294:	21000104 	addi	r4,r4,4
   41298:	d9002e15 	stw	r4,184(sp)
   4129c:	11400015 	stw	r5,0(r2)
   412a0:	10c00115 	stw	r3,4(r2)
   412a4:	003cb806 	br	40588 <__alt_mem_SHARED_MEMORY+0xfffbf588>
   412a8:	d8c02e17 	ldw	r3,184(sp)
   412ac:	d9002e17 	ldw	r4,184(sp)
   412b0:	8025883a 	mov	r18,r16
   412b4:	18800017 	ldw	r2,0(r3)
   412b8:	21000104 	addi	r4,r4,4
   412bc:	00c00044 	movi	r3,1
   412c0:	e011883a 	mov	r8,fp
   412c4:	d8c02915 	stw	r3,164(sp)
   412c8:	d8002785 	stb	zero,158(sp)
   412cc:	d8801405 	stb	r2,80(sp)
   412d0:	d9002e15 	stw	r4,184(sp)
   412d4:	d8c02b15 	stw	r3,172(sp)
   412d8:	d8002a15 	stw	zero,168(sp)
   412dc:	d8003215 	stw	zero,200(sp)
   412e0:	dc001404 	addi	r16,sp,80
   412e4:	0039883a 	mov	fp,zero
   412e8:	003e5306 	br	40c38 <__alt_mem_SHARED_MEMORY+0xfffbfc38>
   412ec:	010001b4 	movhi	r4,6
   412f0:	2122ce04 	addi	r4,r4,-29896
   412f4:	0039883a 	mov	fp,zero
   412f8:	d9003915 	stw	r4,228(sp)
   412fc:	04401e04 	movi	r17,120
   41300:	003f6906 	br	410a8 <__alt_mem_SHARED_MEMORY+0xfffc00a8>
   41304:	8025883a 	mov	r18,r16
   41308:	dc002903 	ldbu	r16,164(sp)
   4130c:	e011883a 	mov	r8,fp
   41310:	84003fcc 	andi	r16,r16,255
   41314:	8005081e 	bne	r16,zero,42738 <___vfprintf_internal_r+0x2290>
   41318:	883d6126 	beq	r17,zero,408a0 <__alt_mem_SHARED_MEMORY+0xfffbf8a0>
   4131c:	00c00044 	movi	r3,1
   41320:	d8c02915 	stw	r3,164(sp)
   41324:	dc401405 	stb	r17,80(sp)
   41328:	d8002785 	stb	zero,158(sp)
   4132c:	003fe906 	br	412d4 <__alt_mem_SHARED_MEMORY+0xfffc02d4>
   41330:	014001b4 	movhi	r5,6
   41334:	2962ce04 	addi	r5,r5,-29896
   41338:	d9403915 	stw	r5,228(sp)
   4133c:	d8c02e15 	stw	r3,184(sp)
   41340:	1025883a 	mov	r18,r2
   41344:	04401e04 	movi	r17,120
   41348:	9d84b03a 	or	r2,r19,r22
   4134c:	1000fc1e 	bne	r2,zero,41740 <___vfprintf_internal_r+0x1298>
   41350:	0039883a 	mov	fp,zero
   41354:	00800084 	movi	r2,2
   41358:	10803fcc 	andi	r2,r2,255
   4135c:	00c00044 	movi	r3,1
   41360:	10c20f26 	beq	r2,r3,41ba0 <___vfprintf_internal_r+0x16f8>
   41364:	00c00084 	movi	r3,2
   41368:	10fd3326 	beq	r2,r3,40838 <__alt_mem_SHARED_MEMORY+0xfffbf838>
   4136c:	003e0b06 	br	40b9c <__alt_mem_SHARED_MEMORY+0xfffbfb9c>
   41370:	d8c02017 	ldw	r3,128(sp)
   41374:	003e7106 	br	40d3c <__alt_mem_SHARED_MEMORY+0xfffbfd3c>
   41378:	00801944 	movi	r2,101
   4137c:	14407e0e 	bge	r2,r17,41578 <___vfprintf_internal_r+0x10d0>
   41380:	d9003617 	ldw	r4,216(sp)
   41384:	d9403817 	ldw	r5,224(sp)
   41388:	000d883a 	mov	r6,zero
   4138c:	000f883a 	mov	r7,zero
   41390:	d8c03c15 	stw	r3,240(sp)
   41394:	da003d15 	stw	r8,244(sp)
   41398:	004bc800 	call	4bc80 <__eqdf2>
   4139c:	d8c03c17 	ldw	r3,240(sp)
   413a0:	da003d17 	ldw	r8,244(sp)
   413a4:	1000f71e 	bne	r2,zero,41784 <___vfprintf_internal_r+0x12dc>
   413a8:	d8801f17 	ldw	r2,124(sp)
   413ac:	010001b4 	movhi	r4,6
   413b0:	2122d504 	addi	r4,r4,-29868
   413b4:	18c00044 	addi	r3,r3,1
   413b8:	10800044 	addi	r2,r2,1
   413bc:	41000015 	stw	r4,0(r8)
   413c0:	01000044 	movi	r4,1
   413c4:	41000115 	stw	r4,4(r8)
   413c8:	d8c02015 	stw	r3,128(sp)
   413cc:	d8801f15 	stw	r2,124(sp)
   413d0:	010001c4 	movi	r4,7
   413d4:	2082b816 	blt	r4,r2,41eb8 <___vfprintf_internal_r+0x1a10>
   413d8:	42000204 	addi	r8,r8,8
   413dc:	d8802617 	ldw	r2,152(sp)
   413e0:	d9403317 	ldw	r5,204(sp)
   413e4:	11400216 	blt	r2,r5,413f0 <___vfprintf_internal_r+0xf48>
   413e8:	9080004c 	andi	r2,r18,1
   413ec:	103eb326 	beq	r2,zero,40ebc <__alt_mem_SHARED_MEMORY+0xfffbfebc>
   413f0:	d8803717 	ldw	r2,220(sp)
   413f4:	d9003417 	ldw	r4,208(sp)
   413f8:	d9403717 	ldw	r5,220(sp)
   413fc:	1887883a 	add	r3,r3,r2
   41400:	d8801f17 	ldw	r2,124(sp)
   41404:	41000015 	stw	r4,0(r8)
   41408:	41400115 	stw	r5,4(r8)
   4140c:	10800044 	addi	r2,r2,1
   41410:	d8c02015 	stw	r3,128(sp)
   41414:	d8801f15 	stw	r2,124(sp)
   41418:	010001c4 	movi	r4,7
   4141c:	20832916 	blt	r4,r2,420c4 <___vfprintf_internal_r+0x1c1c>
   41420:	42000204 	addi	r8,r8,8
   41424:	d8803317 	ldw	r2,204(sp)
   41428:	143fffc4 	addi	r16,r2,-1
   4142c:	043ea30e 	bge	zero,r16,40ebc <__alt_mem_SHARED_MEMORY+0xfffbfebc>
   41430:	04400404 	movi	r17,16
   41434:	d8801f17 	ldw	r2,124(sp)
   41438:	8c00880e 	bge	r17,r16,4165c <___vfprintf_internal_r+0x11b4>
   4143c:	014001b4 	movhi	r5,6
   41440:	2962d584 	addi	r5,r5,-29866
   41444:	d9402c15 	stw	r5,176(sp)
   41448:	058001c4 	movi	r22,7
   4144c:	dcc02d17 	ldw	r19,180(sp)
   41450:	00000306 	br	41460 <___vfprintf_internal_r+0xfb8>
   41454:	42000204 	addi	r8,r8,8
   41458:	843ffc04 	addi	r16,r16,-16
   4145c:	8c00820e 	bge	r17,r16,41668 <___vfprintf_internal_r+0x11c0>
   41460:	18c00404 	addi	r3,r3,16
   41464:	10800044 	addi	r2,r2,1
   41468:	45000015 	stw	r20,0(r8)
   4146c:	44400115 	stw	r17,4(r8)
   41470:	d8c02015 	stw	r3,128(sp)
   41474:	d8801f15 	stw	r2,124(sp)
   41478:	b0bff60e 	bge	r22,r2,41454 <__alt_mem_SHARED_MEMORY+0xfffc0454>
   4147c:	d9801e04 	addi	r6,sp,120
   41480:	b80b883a 	mov	r5,r23
   41484:	9809883a 	mov	r4,r19
   41488:	00471980 	call	47198 <__sprint_r>
   4148c:	103d0a1e 	bne	r2,zero,408b8 <__alt_mem_SHARED_MEMORY+0xfffbf8b8>
   41490:	d8c02017 	ldw	r3,128(sp)
   41494:	d8801f17 	ldw	r2,124(sp)
   41498:	da000404 	addi	r8,sp,16
   4149c:	003fee06 	br	41458 <__alt_mem_SHARED_MEMORY+0xfffc0458>
   414a0:	d9403117 	ldw	r5,196(sp)
   414a4:	d8802917 	ldw	r2,164(sp)
   414a8:	28adc83a 	sub	r22,r5,r2
   414ac:	05be410e 	bge	zero,r22,40db4 <__alt_mem_SHARED_MEMORY+0xfffbfdb4>
   414b0:	07000404 	movi	fp,16
   414b4:	d8801f17 	ldw	r2,124(sp)
   414b8:	e5838f0e 	bge	fp,r22,422f8 <___vfprintf_internal_r+0x1e50>
   414bc:	014001b4 	movhi	r5,6
   414c0:	2962d584 	addi	r5,r5,-29866
   414c4:	dc403015 	stw	r17,192(sp)
   414c8:	d9402c15 	stw	r5,176(sp)
   414cc:	b023883a 	mov	r17,r22
   414d0:	04c001c4 	movi	r19,7
   414d4:	a82d883a 	mov	r22,r21
   414d8:	902b883a 	mov	r21,r18
   414dc:	8025883a 	mov	r18,r16
   414e0:	dc002d17 	ldw	r16,180(sp)
   414e4:	00000306 	br	414f4 <___vfprintf_internal_r+0x104c>
   414e8:	8c7ffc04 	addi	r17,r17,-16
   414ec:	42000204 	addi	r8,r8,8
   414f0:	e440110e 	bge	fp,r17,41538 <___vfprintf_internal_r+0x1090>
   414f4:	18c00404 	addi	r3,r3,16
   414f8:	10800044 	addi	r2,r2,1
   414fc:	45000015 	stw	r20,0(r8)
   41500:	47000115 	stw	fp,4(r8)
   41504:	d8c02015 	stw	r3,128(sp)
   41508:	d8801f15 	stw	r2,124(sp)
   4150c:	98bff60e 	bge	r19,r2,414e8 <__alt_mem_SHARED_MEMORY+0xfffc04e8>
   41510:	d9801e04 	addi	r6,sp,120
   41514:	b80b883a 	mov	r5,r23
   41518:	8009883a 	mov	r4,r16
   4151c:	00471980 	call	47198 <__sprint_r>
   41520:	103ce51e 	bne	r2,zero,408b8 <__alt_mem_SHARED_MEMORY+0xfffbf8b8>
   41524:	8c7ffc04 	addi	r17,r17,-16
   41528:	d8c02017 	ldw	r3,128(sp)
   4152c:	d8801f17 	ldw	r2,124(sp)
   41530:	da000404 	addi	r8,sp,16
   41534:	e47fef16 	blt	fp,r17,414f4 <__alt_mem_SHARED_MEMORY+0xfffc04f4>
   41538:	9021883a 	mov	r16,r18
   4153c:	a825883a 	mov	r18,r21
   41540:	b02b883a 	mov	r21,r22
   41544:	882d883a 	mov	r22,r17
   41548:	dc403017 	ldw	r17,192(sp)
   4154c:	d9002c17 	ldw	r4,176(sp)
   41550:	1d87883a 	add	r3,r3,r22
   41554:	10800044 	addi	r2,r2,1
   41558:	41000015 	stw	r4,0(r8)
   4155c:	45800115 	stw	r22,4(r8)
   41560:	d8c02015 	stw	r3,128(sp)
   41564:	d8801f15 	stw	r2,124(sp)
   41568:	010001c4 	movi	r4,7
   4156c:	20818e16 	blt	r4,r2,41ba8 <___vfprintf_internal_r+0x1700>
   41570:	42000204 	addi	r8,r8,8
   41574:	003e0f06 	br	40db4 <__alt_mem_SHARED_MEMORY+0xfffbfdb4>
   41578:	d9403317 	ldw	r5,204(sp)
   4157c:	00800044 	movi	r2,1
   41580:	18c00044 	addi	r3,r3,1
   41584:	1141530e 	bge	r2,r5,41ad4 <___vfprintf_internal_r+0x162c>
   41588:	dc401f17 	ldw	r17,124(sp)
   4158c:	00800044 	movi	r2,1
   41590:	40800115 	stw	r2,4(r8)
   41594:	8c400044 	addi	r17,r17,1
   41598:	44000015 	stw	r16,0(r8)
   4159c:	d8c02015 	stw	r3,128(sp)
   415a0:	dc401f15 	stw	r17,124(sp)
   415a4:	008001c4 	movi	r2,7
   415a8:	14416b16 	blt	r2,r17,41b58 <___vfprintf_internal_r+0x16b0>
   415ac:	42000204 	addi	r8,r8,8
   415b0:	d8803717 	ldw	r2,220(sp)
   415b4:	d9003417 	ldw	r4,208(sp)
   415b8:	8c400044 	addi	r17,r17,1
   415bc:	10c7883a 	add	r3,r2,r3
   415c0:	40800115 	stw	r2,4(r8)
   415c4:	41000015 	stw	r4,0(r8)
   415c8:	d8c02015 	stw	r3,128(sp)
   415cc:	dc401f15 	stw	r17,124(sp)
   415d0:	008001c4 	movi	r2,7
   415d4:	14416916 	blt	r2,r17,41b7c <___vfprintf_internal_r+0x16d4>
   415d8:	45800204 	addi	r22,r8,8
   415dc:	d9003617 	ldw	r4,216(sp)
   415e0:	d9403817 	ldw	r5,224(sp)
   415e4:	000d883a 	mov	r6,zero
   415e8:	000f883a 	mov	r7,zero
   415ec:	d8c03c15 	stw	r3,240(sp)
   415f0:	004bc800 	call	4bc80 <__eqdf2>
   415f4:	d8c03c17 	ldw	r3,240(sp)
   415f8:	1000bc26 	beq	r2,zero,418ec <___vfprintf_internal_r+0x1444>
   415fc:	d9403317 	ldw	r5,204(sp)
   41600:	84000044 	addi	r16,r16,1
   41604:	8c400044 	addi	r17,r17,1
   41608:	28bfffc4 	addi	r2,r5,-1
   4160c:	1887883a 	add	r3,r3,r2
   41610:	b0800115 	stw	r2,4(r22)
   41614:	b4000015 	stw	r16,0(r22)
   41618:	d8c02015 	stw	r3,128(sp)
   4161c:	dc401f15 	stw	r17,124(sp)
   41620:	008001c4 	movi	r2,7
   41624:	14414316 	blt	r2,r17,41b34 <___vfprintf_internal_r+0x168c>
   41628:	b5800204 	addi	r22,r22,8
   4162c:	d9003a17 	ldw	r4,232(sp)
   41630:	df0022c4 	addi	fp,sp,139
   41634:	8c400044 	addi	r17,r17,1
   41638:	20c7883a 	add	r3,r4,r3
   4163c:	b7000015 	stw	fp,0(r22)
   41640:	b1000115 	stw	r4,4(r22)
   41644:	d8c02015 	stw	r3,128(sp)
   41648:	dc401f15 	stw	r17,124(sp)
   4164c:	008001c4 	movi	r2,7
   41650:	14400e16 	blt	r2,r17,4168c <___vfprintf_internal_r+0x11e4>
   41654:	b2000204 	addi	r8,r22,8
   41658:	003e1806 	br	40ebc <__alt_mem_SHARED_MEMORY+0xfffbfebc>
   4165c:	010001b4 	movhi	r4,6
   41660:	2122d584 	addi	r4,r4,-29866
   41664:	d9002c15 	stw	r4,176(sp)
   41668:	d9002c17 	ldw	r4,176(sp)
   4166c:	1c07883a 	add	r3,r3,r16
   41670:	44000115 	stw	r16,4(r8)
   41674:	41000015 	stw	r4,0(r8)
   41678:	10800044 	addi	r2,r2,1
   4167c:	d8c02015 	stw	r3,128(sp)
   41680:	d8801f15 	stw	r2,124(sp)
   41684:	010001c4 	movi	r4,7
   41688:	20be0b0e 	bge	r4,r2,40eb8 <__alt_mem_SHARED_MEMORY+0xfffbfeb8>
   4168c:	d9002d17 	ldw	r4,180(sp)
   41690:	d9801e04 	addi	r6,sp,120
   41694:	b80b883a 	mov	r5,r23
   41698:	00471980 	call	47198 <__sprint_r>
   4169c:	103c861e 	bne	r2,zero,408b8 <__alt_mem_SHARED_MEMORY+0xfffbf8b8>
   416a0:	d8c02017 	ldw	r3,128(sp)
   416a4:	da000404 	addi	r8,sp,16
   416a8:	003e0406 	br	40ebc <__alt_mem_SHARED_MEMORY+0xfffbfebc>
   416ac:	d9002d17 	ldw	r4,180(sp)
   416b0:	d9801e04 	addi	r6,sp,120
   416b4:	b80b883a 	mov	r5,r23
   416b8:	00471980 	call	47198 <__sprint_r>
   416bc:	103e3b26 	beq	r2,zero,40fac <__alt_mem_SHARED_MEMORY+0xfffbffac>
   416c0:	003c7d06 	br	408b8 <__alt_mem_SHARED_MEMORY+0xfffbf8b8>
   416c4:	d9002d17 	ldw	r4,180(sp)
   416c8:	d9801e04 	addi	r6,sp,120
   416cc:	b80b883a 	mov	r5,r23
   416d0:	00471980 	call	47198 <__sprint_r>
   416d4:	103c781e 	bne	r2,zero,408b8 <__alt_mem_SHARED_MEMORY+0xfffbf8b8>
   416d8:	d8c02017 	ldw	r3,128(sp)
   416dc:	da000404 	addi	r8,sp,16
   416e0:	003de906 	br	40e88 <__alt_mem_SHARED_MEMORY+0xfffbfe88>
   416e4:	d9002d17 	ldw	r4,180(sp)
   416e8:	d9801e04 	addi	r6,sp,120
   416ec:	b80b883a 	mov	r5,r23
   416f0:	00471980 	call	47198 <__sprint_r>
   416f4:	103c701e 	bne	r2,zero,408b8 <__alt_mem_SHARED_MEMORY+0xfffbf8b8>
   416f8:	d8c02017 	ldw	r3,128(sp)
   416fc:	da000404 	addi	r8,sp,16
   41700:	003d9b06 	br	40d70 <__alt_mem_SHARED_MEMORY+0xfffbfd70>
   41704:	d9002d17 	ldw	r4,180(sp)
   41708:	d9801e04 	addi	r6,sp,120
   4170c:	b80b883a 	mov	r5,r23
   41710:	00471980 	call	47198 <__sprint_r>
   41714:	103c681e 	bne	r2,zero,408b8 <__alt_mem_SHARED_MEMORY+0xfffbf8b8>
   41718:	d8c02017 	ldw	r3,128(sp)
   4171c:	da000404 	addi	r8,sp,16
   41720:	003da106 	br	40da8 <__alt_mem_SHARED_MEMORY+0xfffbfda8>
   41724:	d9402a17 	ldw	r5,168(sp)
   41728:	d8002785 	stb	zero,158(sp)
   4172c:	283f0616 	blt	r5,zero,41348 <__alt_mem_SHARED_MEMORY+0xfffc0348>
   41730:	00ffdfc4 	movi	r3,-129
   41734:	9d84b03a 	or	r2,r19,r22
   41738:	90e4703a 	and	r18,r18,r3
   4173c:	103c3b26 	beq	r2,zero,4082c <__alt_mem_SHARED_MEMORY+0xfffbf82c>
   41740:	0039883a 	mov	fp,zero
   41744:	003e5806 	br	410a8 <__alt_mem_SHARED_MEMORY+0xfffc00a8>
   41748:	9080040c 	andi	r2,r18,16
   4174c:	1001b326 	beq	r2,zero,41e1c <___vfprintf_internal_r+0x1974>
   41750:	d8c02e17 	ldw	r3,184(sp)
   41754:	d9002a17 	ldw	r4,168(sp)
   41758:	d8002785 	stb	zero,158(sp)
   4175c:	18800104 	addi	r2,r3,4
   41760:	1cc00017 	ldw	r19,0(r3)
   41764:	002d883a 	mov	r22,zero
   41768:	2001b516 	blt	r4,zero,41e40 <___vfprintf_internal_r+0x1998>
   4176c:	00ffdfc4 	movi	r3,-129
   41770:	d8802e15 	stw	r2,184(sp)
   41774:	90e4703a 	and	r18,r18,r3
   41778:	983d0526 	beq	r19,zero,40b90 <__alt_mem_SHARED_MEMORY+0xfffbfb90>
   4177c:	0039883a 	mov	fp,zero
   41780:	003d0806 	br	40ba4 <__alt_mem_SHARED_MEMORY+0xfffbfba4>
   41784:	dc402617 	ldw	r17,152(sp)
   41788:	0441d30e 	bge	zero,r17,41ed8 <___vfprintf_internal_r+0x1a30>
   4178c:	dc403217 	ldw	r17,200(sp)
   41790:	d8803317 	ldw	r2,204(sp)
   41794:	1440010e 	bge	r2,r17,4179c <___vfprintf_internal_r+0x12f4>
   41798:	1023883a 	mov	r17,r2
   4179c:	04400a0e 	bge	zero,r17,417c8 <___vfprintf_internal_r+0x1320>
   417a0:	d8801f17 	ldw	r2,124(sp)
   417a4:	1c47883a 	add	r3,r3,r17
   417a8:	44000015 	stw	r16,0(r8)
   417ac:	10800044 	addi	r2,r2,1
   417b0:	44400115 	stw	r17,4(r8)
   417b4:	d8c02015 	stw	r3,128(sp)
   417b8:	d8801f15 	stw	r2,124(sp)
   417bc:	010001c4 	movi	r4,7
   417c0:	20826516 	blt	r4,r2,42158 <___vfprintf_internal_r+0x1cb0>
   417c4:	42000204 	addi	r8,r8,8
   417c8:	88026116 	blt	r17,zero,42150 <___vfprintf_internal_r+0x1ca8>
   417cc:	d9003217 	ldw	r4,200(sp)
   417d0:	2463c83a 	sub	r17,r4,r17
   417d4:	04407b0e 	bge	zero,r17,419c4 <___vfprintf_internal_r+0x151c>
   417d8:	05800404 	movi	r22,16
   417dc:	d8801f17 	ldw	r2,124(sp)
   417e0:	b4419d0e 	bge	r22,r17,41e58 <___vfprintf_internal_r+0x19b0>
   417e4:	010001b4 	movhi	r4,6
   417e8:	2122d584 	addi	r4,r4,-29866
   417ec:	d9002c15 	stw	r4,176(sp)
   417f0:	070001c4 	movi	fp,7
   417f4:	dcc02d17 	ldw	r19,180(sp)
   417f8:	00000306 	br	41808 <___vfprintf_internal_r+0x1360>
   417fc:	42000204 	addi	r8,r8,8
   41800:	8c7ffc04 	addi	r17,r17,-16
   41804:	b441970e 	bge	r22,r17,41e64 <___vfprintf_internal_r+0x19bc>
   41808:	18c00404 	addi	r3,r3,16
   4180c:	10800044 	addi	r2,r2,1
   41810:	45000015 	stw	r20,0(r8)
   41814:	45800115 	stw	r22,4(r8)
   41818:	d8c02015 	stw	r3,128(sp)
   4181c:	d8801f15 	stw	r2,124(sp)
   41820:	e0bff60e 	bge	fp,r2,417fc <__alt_mem_SHARED_MEMORY+0xfffc07fc>
   41824:	d9801e04 	addi	r6,sp,120
   41828:	b80b883a 	mov	r5,r23
   4182c:	9809883a 	mov	r4,r19
   41830:	00471980 	call	47198 <__sprint_r>
   41834:	103c201e 	bne	r2,zero,408b8 <__alt_mem_SHARED_MEMORY+0xfffbf8b8>
   41838:	d8c02017 	ldw	r3,128(sp)
   4183c:	d8801f17 	ldw	r2,124(sp)
   41840:	da000404 	addi	r8,sp,16
   41844:	003fee06 	br	41800 <__alt_mem_SHARED_MEMORY+0xfffc0800>
   41848:	d9002d17 	ldw	r4,180(sp)
   4184c:	d9801e04 	addi	r6,sp,120
   41850:	b80b883a 	mov	r5,r23
   41854:	00471980 	call	47198 <__sprint_r>
   41858:	103c171e 	bne	r2,zero,408b8 <__alt_mem_SHARED_MEMORY+0xfffbf8b8>
   4185c:	d8c02017 	ldw	r3,128(sp)
   41860:	df002787 	ldb	fp,158(sp)
   41864:	da000404 	addi	r8,sp,16
   41868:	003d3406 	br	40d3c <__alt_mem_SHARED_MEMORY+0xfffbfd3c>
   4186c:	9080040c 	andi	r2,r18,16
   41870:	10016126 	beq	r2,zero,41df8 <___vfprintf_internal_r+0x1950>
   41874:	d9402e17 	ldw	r5,184(sp)
   41878:	2cc00017 	ldw	r19,0(r5)
   4187c:	29400104 	addi	r5,r5,4
   41880:	d9402e15 	stw	r5,184(sp)
   41884:	982dd7fa 	srai	r22,r19,31
   41888:	b005883a 	mov	r2,r22
   4188c:	003c5a06 	br	409f8 <__alt_mem_SHARED_MEMORY+0xfffbf9f8>
   41890:	9080040c 	andi	r2,r18,16
   41894:	10003526 	beq	r2,zero,4196c <___vfprintf_internal_r+0x14c4>
   41898:	d8c02e17 	ldw	r3,184(sp)
   4189c:	d9002a17 	ldw	r4,168(sp)
   418a0:	d8002785 	stb	zero,158(sp)
   418a4:	18800104 	addi	r2,r3,4
   418a8:	1cc00017 	ldw	r19,0(r3)
   418ac:	002d883a 	mov	r22,zero
   418b0:	20003716 	blt	r4,zero,41990 <___vfprintf_internal_r+0x14e8>
   418b4:	00ffdfc4 	movi	r3,-129
   418b8:	d8802e15 	stw	r2,184(sp)
   418bc:	90e4703a 	and	r18,r18,r3
   418c0:	0039883a 	mov	fp,zero
   418c4:	983dd426 	beq	r19,zero,41018 <__alt_mem_SHARED_MEMORY+0xfffc0018>
   418c8:	00800244 	movi	r2,9
   418cc:	14fc5336 	bltu	r2,r19,40a1c <__alt_mem_SHARED_MEMORY+0xfffbfa1c>
   418d0:	d8c02817 	ldw	r3,160(sp)
   418d4:	dc001dc4 	addi	r16,sp,119
   418d8:	9cc00c04 	addi	r19,r19,48
   418dc:	1c07c83a 	sub	r3,r3,r16
   418e0:	dcc01dc5 	stb	r19,119(sp)
   418e4:	d8c02b15 	stw	r3,172(sp)
   418e8:	003cc606 	br	40c04 <__alt_mem_SHARED_MEMORY+0xfffbfc04>
   418ec:	d8803317 	ldw	r2,204(sp)
   418f0:	143fffc4 	addi	r16,r2,-1
   418f4:	043f4d0e 	bge	zero,r16,4162c <__alt_mem_SHARED_MEMORY+0xfffc062c>
   418f8:	07000404 	movi	fp,16
   418fc:	e400810e 	bge	fp,r16,41b04 <___vfprintf_internal_r+0x165c>
   41900:	014001b4 	movhi	r5,6
   41904:	2962d584 	addi	r5,r5,-29866
   41908:	d9402c15 	stw	r5,176(sp)
   4190c:	01c001c4 	movi	r7,7
   41910:	dcc02d17 	ldw	r19,180(sp)
   41914:	00000306 	br	41924 <___vfprintf_internal_r+0x147c>
   41918:	b5800204 	addi	r22,r22,8
   4191c:	843ffc04 	addi	r16,r16,-16
   41920:	e4007b0e 	bge	fp,r16,41b10 <___vfprintf_internal_r+0x1668>
   41924:	18c00404 	addi	r3,r3,16
   41928:	8c400044 	addi	r17,r17,1
   4192c:	b5000015 	stw	r20,0(r22)
   41930:	b7000115 	stw	fp,4(r22)
   41934:	d8c02015 	stw	r3,128(sp)
   41938:	dc401f15 	stw	r17,124(sp)
   4193c:	3c7ff60e 	bge	r7,r17,41918 <__alt_mem_SHARED_MEMORY+0xfffc0918>
   41940:	d9801e04 	addi	r6,sp,120
   41944:	b80b883a 	mov	r5,r23
   41948:	9809883a 	mov	r4,r19
   4194c:	d9c03c15 	stw	r7,240(sp)
   41950:	00471980 	call	47198 <__sprint_r>
   41954:	d9c03c17 	ldw	r7,240(sp)
   41958:	103bd71e 	bne	r2,zero,408b8 <__alt_mem_SHARED_MEMORY+0xfffbf8b8>
   4195c:	d8c02017 	ldw	r3,128(sp)
   41960:	dc401f17 	ldw	r17,124(sp)
   41964:	dd800404 	addi	r22,sp,16
   41968:	003fec06 	br	4191c <__alt_mem_SHARED_MEMORY+0xfffc091c>
   4196c:	9080100c 	andi	r2,r18,64
   41970:	d8002785 	stb	zero,158(sp)
   41974:	10010e26 	beq	r2,zero,41db0 <___vfprintf_internal_r+0x1908>
   41978:	d9402e17 	ldw	r5,184(sp)
   4197c:	d8c02a17 	ldw	r3,168(sp)
   41980:	002d883a 	mov	r22,zero
   41984:	28800104 	addi	r2,r5,4
   41988:	2cc0000b 	ldhu	r19,0(r5)
   4198c:	183fc90e 	bge	r3,zero,418b4 <__alt_mem_SHARED_MEMORY+0xfffc08b4>
   41990:	d8802e15 	stw	r2,184(sp)
   41994:	0039883a 	mov	fp,zero
   41998:	9d84b03a 	or	r2,r19,r22
   4199c:	103c1e1e 	bne	r2,zero,40a18 <__alt_mem_SHARED_MEMORY+0xfffbfa18>
   419a0:	00800044 	movi	r2,1
   419a4:	003e6c06 	br	41358 <__alt_mem_SHARED_MEMORY+0xfffc0358>
   419a8:	d9002d17 	ldw	r4,180(sp)
   419ac:	d9801e04 	addi	r6,sp,120
   419b0:	b80b883a 	mov	r5,r23
   419b4:	00471980 	call	47198 <__sprint_r>
   419b8:	103bbf1e 	bne	r2,zero,408b8 <__alt_mem_SHARED_MEMORY+0xfffbf8b8>
   419bc:	d8c02017 	ldw	r3,128(sp)
   419c0:	da000404 	addi	r8,sp,16
   419c4:	d9003217 	ldw	r4,200(sp)
   419c8:	d8802617 	ldw	r2,152(sp)
   419cc:	d9403317 	ldw	r5,204(sp)
   419d0:	8123883a 	add	r17,r16,r4
   419d4:	11400216 	blt	r2,r5,419e0 <___vfprintf_internal_r+0x1538>
   419d8:	9100004c 	andi	r4,r18,1
   419dc:	20000d26 	beq	r4,zero,41a14 <___vfprintf_internal_r+0x156c>
   419e0:	d9003717 	ldw	r4,220(sp)
   419e4:	d9403417 	ldw	r5,208(sp)
   419e8:	1907883a 	add	r3,r3,r4
   419ec:	d9001f17 	ldw	r4,124(sp)
   419f0:	41400015 	stw	r5,0(r8)
   419f4:	d9403717 	ldw	r5,220(sp)
   419f8:	21000044 	addi	r4,r4,1
   419fc:	d8c02015 	stw	r3,128(sp)
   41a00:	41400115 	stw	r5,4(r8)
   41a04:	d9001f15 	stw	r4,124(sp)
   41a08:	014001c4 	movi	r5,7
   41a0c:	2901e816 	blt	r5,r4,421b0 <___vfprintf_internal_r+0x1d08>
   41a10:	42000204 	addi	r8,r8,8
   41a14:	d9003317 	ldw	r4,204(sp)
   41a18:	8121883a 	add	r16,r16,r4
   41a1c:	2085c83a 	sub	r2,r4,r2
   41a20:	8461c83a 	sub	r16,r16,r17
   41a24:	1400010e 	bge	r2,r16,41a2c <___vfprintf_internal_r+0x1584>
   41a28:	1021883a 	mov	r16,r2
   41a2c:	04000a0e 	bge	zero,r16,41a58 <___vfprintf_internal_r+0x15b0>
   41a30:	d9001f17 	ldw	r4,124(sp)
   41a34:	1c07883a 	add	r3,r3,r16
   41a38:	44400015 	stw	r17,0(r8)
   41a3c:	21000044 	addi	r4,r4,1
   41a40:	44000115 	stw	r16,4(r8)
   41a44:	d8c02015 	stw	r3,128(sp)
   41a48:	d9001f15 	stw	r4,124(sp)
   41a4c:	014001c4 	movi	r5,7
   41a50:	2901fb16 	blt	r5,r4,42240 <___vfprintf_internal_r+0x1d98>
   41a54:	42000204 	addi	r8,r8,8
   41a58:	8001f716 	blt	r16,zero,42238 <___vfprintf_internal_r+0x1d90>
   41a5c:	1421c83a 	sub	r16,r2,r16
   41a60:	043d160e 	bge	zero,r16,40ebc <__alt_mem_SHARED_MEMORY+0xfffbfebc>
   41a64:	04400404 	movi	r17,16
   41a68:	d8801f17 	ldw	r2,124(sp)
   41a6c:	8c3efb0e 	bge	r17,r16,4165c <__alt_mem_SHARED_MEMORY+0xfffc065c>
   41a70:	014001b4 	movhi	r5,6
   41a74:	2962d584 	addi	r5,r5,-29866
   41a78:	d9402c15 	stw	r5,176(sp)
   41a7c:	058001c4 	movi	r22,7
   41a80:	dcc02d17 	ldw	r19,180(sp)
   41a84:	00000306 	br	41a94 <___vfprintf_internal_r+0x15ec>
   41a88:	42000204 	addi	r8,r8,8
   41a8c:	843ffc04 	addi	r16,r16,-16
   41a90:	8c3ef50e 	bge	r17,r16,41668 <__alt_mem_SHARED_MEMORY+0xfffc0668>
   41a94:	18c00404 	addi	r3,r3,16
   41a98:	10800044 	addi	r2,r2,1
   41a9c:	45000015 	stw	r20,0(r8)
   41aa0:	44400115 	stw	r17,4(r8)
   41aa4:	d8c02015 	stw	r3,128(sp)
   41aa8:	d8801f15 	stw	r2,124(sp)
   41aac:	b0bff60e 	bge	r22,r2,41a88 <__alt_mem_SHARED_MEMORY+0xfffc0a88>
   41ab0:	d9801e04 	addi	r6,sp,120
   41ab4:	b80b883a 	mov	r5,r23
   41ab8:	9809883a 	mov	r4,r19
   41abc:	00471980 	call	47198 <__sprint_r>
   41ac0:	103b7d1e 	bne	r2,zero,408b8 <__alt_mem_SHARED_MEMORY+0xfffbf8b8>
   41ac4:	d8c02017 	ldw	r3,128(sp)
   41ac8:	d8801f17 	ldw	r2,124(sp)
   41acc:	da000404 	addi	r8,sp,16
   41ad0:	003fee06 	br	41a8c <__alt_mem_SHARED_MEMORY+0xfffc0a8c>
   41ad4:	9088703a 	and	r4,r18,r2
   41ad8:	203eab1e 	bne	r4,zero,41588 <__alt_mem_SHARED_MEMORY+0xfffc0588>
   41adc:	dc401f17 	ldw	r17,124(sp)
   41ae0:	40800115 	stw	r2,4(r8)
   41ae4:	44000015 	stw	r16,0(r8)
   41ae8:	8c400044 	addi	r17,r17,1
   41aec:	d8c02015 	stw	r3,128(sp)
   41af0:	dc401f15 	stw	r17,124(sp)
   41af4:	008001c4 	movi	r2,7
   41af8:	14400e16 	blt	r2,r17,41b34 <___vfprintf_internal_r+0x168c>
   41afc:	45800204 	addi	r22,r8,8
   41b00:	003eca06 	br	4162c <__alt_mem_SHARED_MEMORY+0xfffc062c>
   41b04:	010001b4 	movhi	r4,6
   41b08:	2122d584 	addi	r4,r4,-29866
   41b0c:	d9002c15 	stw	r4,176(sp)
   41b10:	d8802c17 	ldw	r2,176(sp)
   41b14:	1c07883a 	add	r3,r3,r16
   41b18:	8c400044 	addi	r17,r17,1
   41b1c:	b0800015 	stw	r2,0(r22)
   41b20:	b4000115 	stw	r16,4(r22)
   41b24:	d8c02015 	stw	r3,128(sp)
   41b28:	dc401f15 	stw	r17,124(sp)
   41b2c:	008001c4 	movi	r2,7
   41b30:	147ebd0e 	bge	r2,r17,41628 <__alt_mem_SHARED_MEMORY+0xfffc0628>
   41b34:	d9002d17 	ldw	r4,180(sp)
   41b38:	d9801e04 	addi	r6,sp,120
   41b3c:	b80b883a 	mov	r5,r23
   41b40:	00471980 	call	47198 <__sprint_r>
   41b44:	103b5c1e 	bne	r2,zero,408b8 <__alt_mem_SHARED_MEMORY+0xfffbf8b8>
   41b48:	d8c02017 	ldw	r3,128(sp)
   41b4c:	dc401f17 	ldw	r17,124(sp)
   41b50:	dd800404 	addi	r22,sp,16
   41b54:	003eb506 	br	4162c <__alt_mem_SHARED_MEMORY+0xfffc062c>
   41b58:	d9002d17 	ldw	r4,180(sp)
   41b5c:	d9801e04 	addi	r6,sp,120
   41b60:	b80b883a 	mov	r5,r23
   41b64:	00471980 	call	47198 <__sprint_r>
   41b68:	103b531e 	bne	r2,zero,408b8 <__alt_mem_SHARED_MEMORY+0xfffbf8b8>
   41b6c:	d8c02017 	ldw	r3,128(sp)
   41b70:	dc401f17 	ldw	r17,124(sp)
   41b74:	da000404 	addi	r8,sp,16
   41b78:	003e8d06 	br	415b0 <__alt_mem_SHARED_MEMORY+0xfffc05b0>
   41b7c:	d9002d17 	ldw	r4,180(sp)
   41b80:	d9801e04 	addi	r6,sp,120
   41b84:	b80b883a 	mov	r5,r23
   41b88:	00471980 	call	47198 <__sprint_r>
   41b8c:	103b4a1e 	bne	r2,zero,408b8 <__alt_mem_SHARED_MEMORY+0xfffbf8b8>
   41b90:	d8c02017 	ldw	r3,128(sp)
   41b94:	dc401f17 	ldw	r17,124(sp)
   41b98:	dd800404 	addi	r22,sp,16
   41b9c:	003e8f06 	br	415dc <__alt_mem_SHARED_MEMORY+0xfffc05dc>
   41ba0:	0027883a 	mov	r19,zero
   41ba4:	003f4a06 	br	418d0 <__alt_mem_SHARED_MEMORY+0xfffc08d0>
   41ba8:	d9002d17 	ldw	r4,180(sp)
   41bac:	d9801e04 	addi	r6,sp,120
   41bb0:	b80b883a 	mov	r5,r23
   41bb4:	00471980 	call	47198 <__sprint_r>
   41bb8:	103b3f1e 	bne	r2,zero,408b8 <__alt_mem_SHARED_MEMORY+0xfffbf8b8>
   41bbc:	d8c02017 	ldw	r3,128(sp)
   41bc0:	da000404 	addi	r8,sp,16
   41bc4:	003c7b06 	br	40db4 <__alt_mem_SHARED_MEMORY+0xfffbfdb4>
   41bc8:	d9402a17 	ldw	r5,168(sp)
   41bcc:	04e7c83a 	sub	r19,zero,r19
   41bd0:	07000b44 	movi	fp,45
   41bd4:	9804c03a 	cmpne	r2,r19,zero
   41bd8:	05adc83a 	sub	r22,zero,r22
   41bdc:	df002785 	stb	fp,158(sp)
   41be0:	b0adc83a 	sub	r22,r22,r2
   41be4:	28017b16 	blt	r5,zero,421d4 <___vfprintf_internal_r+0x1d2c>
   41be8:	00bfdfc4 	movi	r2,-129
   41bec:	90a4703a 	and	r18,r18,r2
   41bf0:	003b8906 	br	40a18 <__alt_mem_SHARED_MEMORY+0xfffbfa18>
   41bf4:	d9003617 	ldw	r4,216(sp)
   41bf8:	d9403817 	ldw	r5,224(sp)
   41bfc:	da003d15 	stw	r8,244(sp)
   41c00:	0046d240 	call	46d24 <__fpclassifyd>
   41c04:	da003d17 	ldw	r8,244(sp)
   41c08:	1000f026 	beq	r2,zero,41fcc <___vfprintf_internal_r+0x1b24>
   41c0c:	d9002a17 	ldw	r4,168(sp)
   41c10:	05bff7c4 	movi	r22,-33
   41c14:	00bfffc4 	movi	r2,-1
   41c18:	8dac703a 	and	r22,r17,r22
   41c1c:	20820026 	beq	r4,r2,42420 <___vfprintf_internal_r+0x1f78>
   41c20:	008011c4 	movi	r2,71
   41c24:	b081f726 	beq	r22,r2,42404 <___vfprintf_internal_r+0x1f5c>
   41c28:	d9003817 	ldw	r4,224(sp)
   41c2c:	90c04014 	ori	r3,r18,256
   41c30:	d8c02c15 	stw	r3,176(sp)
   41c34:	20021516 	blt	r4,zero,4248c <___vfprintf_internal_r+0x1fe4>
   41c38:	dcc03817 	ldw	r19,224(sp)
   41c3c:	d8002905 	stb	zero,164(sp)
   41c40:	00801984 	movi	r2,102
   41c44:	8881f926 	beq	r17,r2,4242c <___vfprintf_internal_r+0x1f84>
   41c48:	00801184 	movi	r2,70
   41c4c:	88821c26 	beq	r17,r2,424c0 <___vfprintf_internal_r+0x2018>
   41c50:	00801144 	movi	r2,69
   41c54:	b081ef26 	beq	r22,r2,42414 <___vfprintf_internal_r+0x1f6c>
   41c58:	d8c02a17 	ldw	r3,168(sp)
   41c5c:	d8802104 	addi	r2,sp,132
   41c60:	d8800315 	stw	r2,12(sp)
   41c64:	d9403617 	ldw	r5,216(sp)
   41c68:	d8802504 	addi	r2,sp,148
   41c6c:	d9002d17 	ldw	r4,180(sp)
   41c70:	d8800215 	stw	r2,8(sp)
   41c74:	d8802604 	addi	r2,sp,152
   41c78:	d8c00015 	stw	r3,0(sp)
   41c7c:	d8800115 	stw	r2,4(sp)
   41c80:	01c00084 	movi	r7,2
   41c84:	980d883a 	mov	r6,r19
   41c88:	d8c03c15 	stw	r3,240(sp)
   41c8c:	da003d15 	stw	r8,244(sp)
   41c90:	0042bd80 	call	42bd8 <_dtoa_r>
   41c94:	1021883a 	mov	r16,r2
   41c98:	008019c4 	movi	r2,103
   41c9c:	d8c03c17 	ldw	r3,240(sp)
   41ca0:	da003d17 	ldw	r8,244(sp)
   41ca4:	88817126 	beq	r17,r2,4226c <___vfprintf_internal_r+0x1dc4>
   41ca8:	008011c4 	movi	r2,71
   41cac:	88829126 	beq	r17,r2,426f4 <___vfprintf_internal_r+0x224c>
   41cb0:	80f9883a 	add	fp,r16,r3
   41cb4:	d9003617 	ldw	r4,216(sp)
   41cb8:	000d883a 	mov	r6,zero
   41cbc:	000f883a 	mov	r7,zero
   41cc0:	980b883a 	mov	r5,r19
   41cc4:	da003d15 	stw	r8,244(sp)
   41cc8:	004bc800 	call	4bc80 <__eqdf2>
   41ccc:	da003d17 	ldw	r8,244(sp)
   41cd0:	10018d26 	beq	r2,zero,42308 <___vfprintf_internal_r+0x1e60>
   41cd4:	d8802117 	ldw	r2,132(sp)
   41cd8:	1700062e 	bgeu	r2,fp,41cf4 <___vfprintf_internal_r+0x184c>
   41cdc:	01000c04 	movi	r4,48
   41ce0:	10c00044 	addi	r3,r2,1
   41ce4:	d8c02115 	stw	r3,132(sp)
   41ce8:	11000005 	stb	r4,0(r2)
   41cec:	d8802117 	ldw	r2,132(sp)
   41cf0:	173ffb36 	bltu	r2,fp,41ce0 <__alt_mem_SHARED_MEMORY+0xfffc0ce0>
   41cf4:	1405c83a 	sub	r2,r2,r16
   41cf8:	d8803315 	stw	r2,204(sp)
   41cfc:	008011c4 	movi	r2,71
   41d00:	b0817626 	beq	r22,r2,422dc <___vfprintf_internal_r+0x1e34>
   41d04:	00801944 	movi	r2,101
   41d08:	1442800e 	bge	r2,r17,4270c <___vfprintf_internal_r+0x2264>
   41d0c:	d8c02617 	ldw	r3,152(sp)
   41d10:	00801984 	movi	r2,102
   41d14:	d8c03215 	stw	r3,200(sp)
   41d18:	8881fe26 	beq	r17,r2,42514 <___vfprintf_internal_r+0x206c>
   41d1c:	d8c03217 	ldw	r3,200(sp)
   41d20:	d9003317 	ldw	r4,204(sp)
   41d24:	1901dd16 	blt	r3,r4,4249c <___vfprintf_internal_r+0x1ff4>
   41d28:	9480004c 	andi	r18,r18,1
   41d2c:	90022b1e 	bne	r18,zero,425dc <___vfprintf_internal_r+0x2134>
   41d30:	1805883a 	mov	r2,r3
   41d34:	18028316 	blt	r3,zero,42744 <___vfprintf_internal_r+0x229c>
   41d38:	d8c03217 	ldw	r3,200(sp)
   41d3c:	044019c4 	movi	r17,103
   41d40:	d8c02b15 	stw	r3,172(sp)
   41d44:	df002907 	ldb	fp,164(sp)
   41d48:	e001531e 	bne	fp,zero,42298 <___vfprintf_internal_r+0x1df0>
   41d4c:	df002783 	ldbu	fp,158(sp)
   41d50:	d8802915 	stw	r2,164(sp)
   41d54:	dc802c17 	ldw	r18,176(sp)
   41d58:	d8002a15 	stw	zero,168(sp)
   41d5c:	003baf06 	br	40c1c <__alt_mem_SHARED_MEMORY+0xfffbfc1c>
   41d60:	d8c02e17 	ldw	r3,184(sp)
   41d64:	d9002e17 	ldw	r4,184(sp)
   41d68:	d9402e17 	ldw	r5,184(sp)
   41d6c:	18c00017 	ldw	r3,0(r3)
   41d70:	21000117 	ldw	r4,4(r4)
   41d74:	29400204 	addi	r5,r5,8
   41d78:	d8c03615 	stw	r3,216(sp)
   41d7c:	d9003815 	stw	r4,224(sp)
   41d80:	d9402e15 	stw	r5,184(sp)
   41d84:	003b5006 	br	40ac8 <__alt_mem_SHARED_MEMORY+0xfffbfac8>
   41d88:	ac400007 	ldb	r17,0(r21)
   41d8c:	003a2806 	br	40630 <__alt_mem_SHARED_MEMORY+0xfffbf630>
   41d90:	9080100c 	andi	r2,r18,64
   41d94:	1000a826 	beq	r2,zero,42038 <___vfprintf_internal_r+0x1b90>
   41d98:	d8c02e17 	ldw	r3,184(sp)
   41d9c:	002d883a 	mov	r22,zero
   41da0:	1cc0000b 	ldhu	r19,0(r3)
   41da4:	18c00104 	addi	r3,r3,4
   41da8:	d8c02e15 	stw	r3,184(sp)
   41dac:	003caf06 	br	4106c <__alt_mem_SHARED_MEMORY+0xfffc006c>
   41db0:	d9002e17 	ldw	r4,184(sp)
   41db4:	d9402a17 	ldw	r5,168(sp)
   41db8:	002d883a 	mov	r22,zero
   41dbc:	20800104 	addi	r2,r4,4
   41dc0:	24c00017 	ldw	r19,0(r4)
   41dc4:	283ebb0e 	bge	r5,zero,418b4 <__alt_mem_SHARED_MEMORY+0xfffc08b4>
   41dc8:	003ef106 	br	41990 <__alt_mem_SHARED_MEMORY+0xfffc0990>
   41dcc:	9080040c 	andi	r2,r18,16
   41dd0:	1000921e 	bne	r2,zero,4201c <___vfprintf_internal_r+0x1b74>
   41dd4:	9480100c 	andi	r18,r18,64
   41dd8:	90013926 	beq	r18,zero,422c0 <___vfprintf_internal_r+0x1e18>
   41ddc:	d9402e17 	ldw	r5,184(sp)
   41de0:	d8c02f17 	ldw	r3,188(sp)
   41de4:	28800017 	ldw	r2,0(r5)
   41de8:	29400104 	addi	r5,r5,4
   41dec:	d9402e15 	stw	r5,184(sp)
   41df0:	10c0000d 	sth	r3,0(r2)
   41df4:	0039e406 	br	40588 <__alt_mem_SHARED_MEMORY+0xfffbf588>
   41df8:	9080100c 	andi	r2,r18,64
   41dfc:	10008026 	beq	r2,zero,42000 <___vfprintf_internal_r+0x1b58>
   41e00:	d8802e17 	ldw	r2,184(sp)
   41e04:	14c0000f 	ldh	r19,0(r2)
   41e08:	10800104 	addi	r2,r2,4
   41e0c:	d8802e15 	stw	r2,184(sp)
   41e10:	982dd7fa 	srai	r22,r19,31
   41e14:	b005883a 	mov	r2,r22
   41e18:	003af706 	br	409f8 <__alt_mem_SHARED_MEMORY+0xfffbf9f8>
   41e1c:	9080100c 	andi	r2,r18,64
   41e20:	d8002785 	stb	zero,158(sp)
   41e24:	10008a1e 	bne	r2,zero,42050 <___vfprintf_internal_r+0x1ba8>
   41e28:	d9002e17 	ldw	r4,184(sp)
   41e2c:	d9402a17 	ldw	r5,168(sp)
   41e30:	002d883a 	mov	r22,zero
   41e34:	20800104 	addi	r2,r4,4
   41e38:	24c00017 	ldw	r19,0(r4)
   41e3c:	283e4b0e 	bge	r5,zero,4176c <__alt_mem_SHARED_MEMORY+0xfffc076c>
   41e40:	9d86b03a 	or	r3,r19,r22
   41e44:	d8802e15 	stw	r2,184(sp)
   41e48:	183e4c1e 	bne	r3,zero,4177c <__alt_mem_SHARED_MEMORY+0xfffc077c>
   41e4c:	0039883a 	mov	fp,zero
   41e50:	0005883a 	mov	r2,zero
   41e54:	003d4006 	br	41358 <__alt_mem_SHARED_MEMORY+0xfffc0358>
   41e58:	014001b4 	movhi	r5,6
   41e5c:	2962d584 	addi	r5,r5,-29866
   41e60:	d9402c15 	stw	r5,176(sp)
   41e64:	d9402c17 	ldw	r5,176(sp)
   41e68:	1c47883a 	add	r3,r3,r17
   41e6c:	10800044 	addi	r2,r2,1
   41e70:	41400015 	stw	r5,0(r8)
   41e74:	44400115 	stw	r17,4(r8)
   41e78:	d8c02015 	stw	r3,128(sp)
   41e7c:	d8801f15 	stw	r2,124(sp)
   41e80:	010001c4 	movi	r4,7
   41e84:	20bec816 	blt	r4,r2,419a8 <__alt_mem_SHARED_MEMORY+0xfffc09a8>
   41e88:	42000204 	addi	r8,r8,8
   41e8c:	003ecd06 	br	419c4 <__alt_mem_SHARED_MEMORY+0xfffc09c4>
   41e90:	d9002a17 	ldw	r4,168(sp)
   41e94:	d8002785 	stb	zero,158(sp)
   41e98:	203d2d16 	blt	r4,zero,41350 <__alt_mem_SHARED_MEMORY+0xfffc0350>
   41e9c:	00bfdfc4 	movi	r2,-129
   41ea0:	90a4703a 	and	r18,r18,r2
   41ea4:	003a6106 	br	4082c <__alt_mem_SHARED_MEMORY+0xfffbf82c>
   41ea8:	010001b4 	movhi	r4,6
   41eac:	2122d584 	addi	r4,r4,-29866
   41eb0:	d9002c15 	stw	r4,176(sp)
   41eb4:	003bea06 	br	40e60 <__alt_mem_SHARED_MEMORY+0xfffbfe60>
   41eb8:	d9002d17 	ldw	r4,180(sp)
   41ebc:	d9801e04 	addi	r6,sp,120
   41ec0:	b80b883a 	mov	r5,r23
   41ec4:	00471980 	call	47198 <__sprint_r>
   41ec8:	103a7b1e 	bne	r2,zero,408b8 <__alt_mem_SHARED_MEMORY+0xfffbf8b8>
   41ecc:	d8c02017 	ldw	r3,128(sp)
   41ed0:	da000404 	addi	r8,sp,16
   41ed4:	003d4106 	br	413dc <__alt_mem_SHARED_MEMORY+0xfffc03dc>
   41ed8:	d8801f17 	ldw	r2,124(sp)
   41edc:	014001b4 	movhi	r5,6
   41ee0:	01000044 	movi	r4,1
   41ee4:	18c00044 	addi	r3,r3,1
   41ee8:	10800044 	addi	r2,r2,1
   41eec:	2962d504 	addi	r5,r5,-29868
   41ef0:	41000115 	stw	r4,4(r8)
   41ef4:	41400015 	stw	r5,0(r8)
   41ef8:	d8c02015 	stw	r3,128(sp)
   41efc:	d8801f15 	stw	r2,124(sp)
   41f00:	010001c4 	movi	r4,7
   41f04:	20805c16 	blt	r4,r2,42078 <___vfprintf_internal_r+0x1bd0>
   41f08:	42000204 	addi	r8,r8,8
   41f0c:	8800041e 	bne	r17,zero,41f20 <___vfprintf_internal_r+0x1a78>
   41f10:	d8803317 	ldw	r2,204(sp)
   41f14:	1000021e 	bne	r2,zero,41f20 <___vfprintf_internal_r+0x1a78>
   41f18:	9080004c 	andi	r2,r18,1
   41f1c:	103be726 	beq	r2,zero,40ebc <__alt_mem_SHARED_MEMORY+0xfffbfebc>
   41f20:	d9003717 	ldw	r4,220(sp)
   41f24:	d8801f17 	ldw	r2,124(sp)
   41f28:	d9403417 	ldw	r5,208(sp)
   41f2c:	20c7883a 	add	r3,r4,r3
   41f30:	10800044 	addi	r2,r2,1
   41f34:	41000115 	stw	r4,4(r8)
   41f38:	41400015 	stw	r5,0(r8)
   41f3c:	d8c02015 	stw	r3,128(sp)
   41f40:	d8801f15 	stw	r2,124(sp)
   41f44:	010001c4 	movi	r4,7
   41f48:	20812116 	blt	r4,r2,423d0 <___vfprintf_internal_r+0x1f28>
   41f4c:	42000204 	addi	r8,r8,8
   41f50:	0463c83a 	sub	r17,zero,r17
   41f54:	0440730e 	bge	zero,r17,42124 <___vfprintf_internal_r+0x1c7c>
   41f58:	05800404 	movi	r22,16
   41f5c:	b440860e 	bge	r22,r17,42178 <___vfprintf_internal_r+0x1cd0>
   41f60:	014001b4 	movhi	r5,6
   41f64:	2962d584 	addi	r5,r5,-29866
   41f68:	d9402c15 	stw	r5,176(sp)
   41f6c:	070001c4 	movi	fp,7
   41f70:	dcc02d17 	ldw	r19,180(sp)
   41f74:	00000306 	br	41f84 <___vfprintf_internal_r+0x1adc>
   41f78:	42000204 	addi	r8,r8,8
   41f7c:	8c7ffc04 	addi	r17,r17,-16
   41f80:	b440800e 	bge	r22,r17,42184 <___vfprintf_internal_r+0x1cdc>
   41f84:	18c00404 	addi	r3,r3,16
   41f88:	10800044 	addi	r2,r2,1
   41f8c:	45000015 	stw	r20,0(r8)
   41f90:	45800115 	stw	r22,4(r8)
   41f94:	d8c02015 	stw	r3,128(sp)
   41f98:	d8801f15 	stw	r2,124(sp)
   41f9c:	e0bff60e 	bge	fp,r2,41f78 <__alt_mem_SHARED_MEMORY+0xfffc0f78>
   41fa0:	d9801e04 	addi	r6,sp,120
   41fa4:	b80b883a 	mov	r5,r23
   41fa8:	9809883a 	mov	r4,r19
   41fac:	00471980 	call	47198 <__sprint_r>
   41fb0:	103a411e 	bne	r2,zero,408b8 <__alt_mem_SHARED_MEMORY+0xfffbf8b8>
   41fb4:	d8c02017 	ldw	r3,128(sp)
   41fb8:	d8801f17 	ldw	r2,124(sp)
   41fbc:	da000404 	addi	r8,sp,16
   41fc0:	003fee06 	br	41f7c <__alt_mem_SHARED_MEMORY+0xfffc0f7c>
   41fc4:	00bfffc4 	movi	r2,-1
   41fc8:	003a3f06 	br	408c8 <__alt_mem_SHARED_MEMORY+0xfffbf8c8>
   41fcc:	008011c4 	movi	r2,71
   41fd0:	1440b816 	blt	r2,r17,422b4 <___vfprintf_internal_r+0x1e0c>
   41fd4:	040001b4 	movhi	r16,6
   41fd8:	8422c704 	addi	r16,r16,-29924
   41fdc:	00c000c4 	movi	r3,3
   41fe0:	00bfdfc4 	movi	r2,-129
   41fe4:	d8c02915 	stw	r3,164(sp)
   41fe8:	90a4703a 	and	r18,r18,r2
   41fec:	df002783 	ldbu	fp,158(sp)
   41ff0:	d8c02b15 	stw	r3,172(sp)
   41ff4:	d8002a15 	stw	zero,168(sp)
   41ff8:	d8003215 	stw	zero,200(sp)
   41ffc:	003b0706 	br	40c1c <__alt_mem_SHARED_MEMORY+0xfffbfc1c>
   42000:	d8c02e17 	ldw	r3,184(sp)
   42004:	1cc00017 	ldw	r19,0(r3)
   42008:	18c00104 	addi	r3,r3,4
   4200c:	d8c02e15 	stw	r3,184(sp)
   42010:	982dd7fa 	srai	r22,r19,31
   42014:	b005883a 	mov	r2,r22
   42018:	003a7706 	br	409f8 <__alt_mem_SHARED_MEMORY+0xfffbf9f8>
   4201c:	d8c02e17 	ldw	r3,184(sp)
   42020:	d9002f17 	ldw	r4,188(sp)
   42024:	18800017 	ldw	r2,0(r3)
   42028:	18c00104 	addi	r3,r3,4
   4202c:	d8c02e15 	stw	r3,184(sp)
   42030:	11000015 	stw	r4,0(r2)
   42034:	00395406 	br	40588 <__alt_mem_SHARED_MEMORY+0xfffbf588>
   42038:	d9002e17 	ldw	r4,184(sp)
   4203c:	002d883a 	mov	r22,zero
   42040:	24c00017 	ldw	r19,0(r4)
   42044:	21000104 	addi	r4,r4,4
   42048:	d9002e15 	stw	r4,184(sp)
   4204c:	003c0706 	br	4106c <__alt_mem_SHARED_MEMORY+0xfffc006c>
   42050:	d9402e17 	ldw	r5,184(sp)
   42054:	d8c02a17 	ldw	r3,168(sp)
   42058:	002d883a 	mov	r22,zero
   4205c:	28800104 	addi	r2,r5,4
   42060:	2cc0000b 	ldhu	r19,0(r5)
   42064:	183dc10e 	bge	r3,zero,4176c <__alt_mem_SHARED_MEMORY+0xfffc076c>
   42068:	003f7506 	br	41e40 <__alt_mem_SHARED_MEMORY+0xfffc0e40>
   4206c:	040001b4 	movhi	r16,6
   42070:	8422c504 	addi	r16,r16,-29932
   42074:	003aa706 	br	40b14 <__alt_mem_SHARED_MEMORY+0xfffbfb14>
   42078:	d9002d17 	ldw	r4,180(sp)
   4207c:	d9801e04 	addi	r6,sp,120
   42080:	b80b883a 	mov	r5,r23
   42084:	00471980 	call	47198 <__sprint_r>
   42088:	103a0b1e 	bne	r2,zero,408b8 <__alt_mem_SHARED_MEMORY+0xfffbf8b8>
   4208c:	dc402617 	ldw	r17,152(sp)
   42090:	d8c02017 	ldw	r3,128(sp)
   42094:	da000404 	addi	r8,sp,16
   42098:	003f9c06 	br	41f0c <__alt_mem_SHARED_MEMORY+0xfffc0f0c>
   4209c:	ac400043 	ldbu	r17,1(r21)
   420a0:	84000814 	ori	r16,r16,32
   420a4:	ad400044 	addi	r21,r21,1
   420a8:	8c403fcc 	andi	r17,r17,255
   420ac:	8c40201c 	xori	r17,r17,128
   420b0:	8c7fe004 	addi	r17,r17,-128
   420b4:	00395e06 	br	40630 <__alt_mem_SHARED_MEMORY+0xfffbf630>
   420b8:	d8c02e15 	stw	r3,184(sp)
   420bc:	0039883a 	mov	fp,zero
   420c0:	003e3506 	br	41998 <__alt_mem_SHARED_MEMORY+0xfffc0998>
   420c4:	d9002d17 	ldw	r4,180(sp)
   420c8:	d9801e04 	addi	r6,sp,120
   420cc:	b80b883a 	mov	r5,r23
   420d0:	00471980 	call	47198 <__sprint_r>
   420d4:	1039f81e 	bne	r2,zero,408b8 <__alt_mem_SHARED_MEMORY+0xfffbf8b8>
   420d8:	d8c02017 	ldw	r3,128(sp)
   420dc:	da000404 	addi	r8,sp,16
   420e0:	003cd006 	br	41424 <__alt_mem_SHARED_MEMORY+0xfffc0424>
   420e4:	8009883a 	mov	r4,r16
   420e8:	df003d15 	stw	fp,244(sp)
   420ec:	00470040 	call	47004 <strlen>
   420f0:	d8802b15 	stw	r2,172(sp)
   420f4:	da003d17 	ldw	r8,244(sp)
   420f8:	103c200e 	bge	r2,zero,4117c <__alt_mem_SHARED_MEMORY+0xfffc017c>
   420fc:	0005883a 	mov	r2,zero
   42100:	003c1e06 	br	4117c <__alt_mem_SHARED_MEMORY+0xfffc017c>
   42104:	d9002d17 	ldw	r4,180(sp)
   42108:	d9801e04 	addi	r6,sp,120
   4210c:	b80b883a 	mov	r5,r23
   42110:	00471980 	call	47198 <__sprint_r>
   42114:	1039e81e 	bne	r2,zero,408b8 <__alt_mem_SHARED_MEMORY+0xfffbf8b8>
   42118:	d8c02017 	ldw	r3,128(sp)
   4211c:	d8801f17 	ldw	r2,124(sp)
   42120:	da000404 	addi	r8,sp,16
   42124:	d9403317 	ldw	r5,204(sp)
   42128:	10800044 	addi	r2,r2,1
   4212c:	44000015 	stw	r16,0(r8)
   42130:	28c7883a 	add	r3,r5,r3
   42134:	003b5b06 	br	40ea4 <__alt_mem_SHARED_MEMORY+0xfffbfea4>
   42138:	010001b4 	movhi	r4,6
   4213c:	2122d984 	addi	r4,r4,-29850
   42140:	d9003515 	stw	r4,212(sp)
   42144:	003af206 	br	40d10 <__alt_mem_SHARED_MEMORY+0xfffbfd10>
   42148:	013fffc4 	movi	r4,-1
   4214c:	003a0806 	br	40970 <__alt_mem_SHARED_MEMORY+0xfffbf970>
   42150:	0023883a 	mov	r17,zero
   42154:	003d9d06 	br	417cc <__alt_mem_SHARED_MEMORY+0xfffc07cc>
   42158:	d9002d17 	ldw	r4,180(sp)
   4215c:	d9801e04 	addi	r6,sp,120
   42160:	b80b883a 	mov	r5,r23
   42164:	00471980 	call	47198 <__sprint_r>
   42168:	1039d31e 	bne	r2,zero,408b8 <__alt_mem_SHARED_MEMORY+0xfffbf8b8>
   4216c:	d8c02017 	ldw	r3,128(sp)
   42170:	da000404 	addi	r8,sp,16
   42174:	003d9406 	br	417c8 <__alt_mem_SHARED_MEMORY+0xfffc07c8>
   42178:	010001b4 	movhi	r4,6
   4217c:	2122d584 	addi	r4,r4,-29866
   42180:	d9002c15 	stw	r4,176(sp)
   42184:	d9002c17 	ldw	r4,176(sp)
   42188:	1c47883a 	add	r3,r3,r17
   4218c:	10800044 	addi	r2,r2,1
   42190:	41000015 	stw	r4,0(r8)
   42194:	44400115 	stw	r17,4(r8)
   42198:	d8c02015 	stw	r3,128(sp)
   4219c:	d8801f15 	stw	r2,124(sp)
   421a0:	010001c4 	movi	r4,7
   421a4:	20bfd716 	blt	r4,r2,42104 <__alt_mem_SHARED_MEMORY+0xfffc1104>
   421a8:	42000204 	addi	r8,r8,8
   421ac:	003fdd06 	br	42124 <__alt_mem_SHARED_MEMORY+0xfffc1124>
   421b0:	d9002d17 	ldw	r4,180(sp)
   421b4:	d9801e04 	addi	r6,sp,120
   421b8:	b80b883a 	mov	r5,r23
   421bc:	00471980 	call	47198 <__sprint_r>
   421c0:	1039bd1e 	bne	r2,zero,408b8 <__alt_mem_SHARED_MEMORY+0xfffbf8b8>
   421c4:	d8802617 	ldw	r2,152(sp)
   421c8:	d8c02017 	ldw	r3,128(sp)
   421cc:	da000404 	addi	r8,sp,16
   421d0:	003e1006 	br	41a14 <__alt_mem_SHARED_MEMORY+0xfffc0a14>
   421d4:	00800044 	movi	r2,1
   421d8:	10803fcc 	andi	r2,r2,255
   421dc:	00c00044 	movi	r3,1
   421e0:	10fa0d26 	beq	r2,r3,40a18 <__alt_mem_SHARED_MEMORY+0xfffbfa18>
   421e4:	00c00084 	movi	r3,2
   421e8:	10fbaf26 	beq	r2,r3,410a8 <__alt_mem_SHARED_MEMORY+0xfffc00a8>
   421ec:	003a6d06 	br	40ba4 <__alt_mem_SHARED_MEMORY+0xfffbfba4>
   421f0:	010001b4 	movhi	r4,6
   421f4:	2122d984 	addi	r4,r4,-29850
   421f8:	d9003515 	stw	r4,212(sp)
   421fc:	003b5406 	br	40f50 <__alt_mem_SHARED_MEMORY+0xfffbff50>
   42200:	d8802a17 	ldw	r2,168(sp)
   42204:	00c00184 	movi	r3,6
   42208:	1880012e 	bgeu	r3,r2,42210 <___vfprintf_internal_r+0x1d68>
   4220c:	1805883a 	mov	r2,r3
   42210:	d8802b15 	stw	r2,172(sp)
   42214:	1000ef16 	blt	r2,zero,425d4 <___vfprintf_internal_r+0x212c>
   42218:	040001b4 	movhi	r16,6
   4221c:	d8802915 	stw	r2,164(sp)
   42220:	dcc02e15 	stw	r19,184(sp)
   42224:	d8002a15 	stw	zero,168(sp)
   42228:	d8003215 	stw	zero,200(sp)
   4222c:	8422d304 	addi	r16,r16,-29876
   42230:	0039883a 	mov	fp,zero
   42234:	003a8006 	br	40c38 <__alt_mem_SHARED_MEMORY+0xfffbfc38>
   42238:	0021883a 	mov	r16,zero
   4223c:	003e0706 	br	41a5c <__alt_mem_SHARED_MEMORY+0xfffc0a5c>
   42240:	d9002d17 	ldw	r4,180(sp)
   42244:	d9801e04 	addi	r6,sp,120
   42248:	b80b883a 	mov	r5,r23
   4224c:	00471980 	call	47198 <__sprint_r>
   42250:	1039991e 	bne	r2,zero,408b8 <__alt_mem_SHARED_MEMORY+0xfffbf8b8>
   42254:	d8802617 	ldw	r2,152(sp)
   42258:	d9403317 	ldw	r5,204(sp)
   4225c:	d8c02017 	ldw	r3,128(sp)
   42260:	da000404 	addi	r8,sp,16
   42264:	2885c83a 	sub	r2,r5,r2
   42268:	003dfb06 	br	41a58 <__alt_mem_SHARED_MEMORY+0xfffc0a58>
   4226c:	9080004c 	andi	r2,r18,1
   42270:	103e8f1e 	bne	r2,zero,41cb0 <__alt_mem_SHARED_MEMORY+0xfffc0cb0>
   42274:	d8802117 	ldw	r2,132(sp)
   42278:	003e9e06 	br	41cf4 <__alt_mem_SHARED_MEMORY+0xfffc0cf4>
   4227c:	1025883a 	mov	r18,r2
   42280:	0039883a 	mov	fp,zero
   42284:	00800084 	movi	r2,2
   42288:	003fd306 	br	421d8 <__alt_mem_SHARED_MEMORY+0xfffc11d8>
   4228c:	07000b44 	movi	fp,45
   42290:	df002785 	stb	fp,158(sp)
   42294:	003a1b06 	br	40b04 <__alt_mem_SHARED_MEMORY+0xfffbfb04>
   42298:	00c00b44 	movi	r3,45
   4229c:	d8c02785 	stb	r3,158(sp)
   422a0:	d8802915 	stw	r2,164(sp)
   422a4:	dc802c17 	ldw	r18,176(sp)
   422a8:	d8002a15 	stw	zero,168(sp)
   422ac:	07000b44 	movi	fp,45
   422b0:	003a5e06 	br	40c2c <__alt_mem_SHARED_MEMORY+0xfffbfc2c>
   422b4:	040001b4 	movhi	r16,6
   422b8:	8422c804 	addi	r16,r16,-29920
   422bc:	003f4706 	br	41fdc <__alt_mem_SHARED_MEMORY+0xfffc0fdc>
   422c0:	d9002e17 	ldw	r4,184(sp)
   422c4:	d9402f17 	ldw	r5,188(sp)
   422c8:	20800017 	ldw	r2,0(r4)
   422cc:	21000104 	addi	r4,r4,4
   422d0:	d9002e15 	stw	r4,184(sp)
   422d4:	11400015 	stw	r5,0(r2)
   422d8:	0038ab06 	br	40588 <__alt_mem_SHARED_MEMORY+0xfffbf588>
   422dc:	dd802617 	ldw	r22,152(sp)
   422e0:	00bfff44 	movi	r2,-3
   422e4:	b0801c16 	blt	r22,r2,42358 <___vfprintf_internal_r+0x1eb0>
   422e8:	d9402a17 	ldw	r5,168(sp)
   422ec:	2d801a16 	blt	r5,r22,42358 <___vfprintf_internal_r+0x1eb0>
   422f0:	dd803215 	stw	r22,200(sp)
   422f4:	003e8906 	br	41d1c <__alt_mem_SHARED_MEMORY+0xfffc0d1c>
   422f8:	010001b4 	movhi	r4,6
   422fc:	2122d584 	addi	r4,r4,-29866
   42300:	d9002c15 	stw	r4,176(sp)
   42304:	003c9106 	br	4154c <__alt_mem_SHARED_MEMORY+0xfffc054c>
   42308:	e005883a 	mov	r2,fp
   4230c:	003e7906 	br	41cf4 <__alt_mem_SHARED_MEMORY+0xfffc0cf4>
   42310:	d9002a17 	ldw	r4,168(sp)
   42314:	df002783 	ldbu	fp,158(sp)
   42318:	dcc02e15 	stw	r19,184(sp)
   4231c:	d9002915 	stw	r4,164(sp)
   42320:	d9002b15 	stw	r4,172(sp)
   42324:	d8002a15 	stw	zero,168(sp)
   42328:	d8003215 	stw	zero,200(sp)
   4232c:	003a3b06 	br	40c1c <__alt_mem_SHARED_MEMORY+0xfffbfc1c>
   42330:	9080004c 	andi	r2,r18,1
   42334:	0039883a 	mov	fp,zero
   42338:	10000426 	beq	r2,zero,4234c <___vfprintf_internal_r+0x1ea4>
   4233c:	00800c04 	movi	r2,48
   42340:	dc001dc4 	addi	r16,sp,119
   42344:	d8801dc5 	stb	r2,119(sp)
   42348:	003b6406 	br	410dc <__alt_mem_SHARED_MEMORY+0xfffc00dc>
   4234c:	d8002b15 	stw	zero,172(sp)
   42350:	dc001e04 	addi	r16,sp,120
   42354:	003a2b06 	br	40c04 <__alt_mem_SHARED_MEMORY+0xfffbfc04>
   42358:	8c7fff84 	addi	r17,r17,-2
   4235c:	b5bfffc4 	addi	r22,r22,-1
   42360:	dd802615 	stw	r22,152(sp)
   42364:	dc4022c5 	stb	r17,139(sp)
   42368:	b000bf16 	blt	r22,zero,42668 <___vfprintf_internal_r+0x21c0>
   4236c:	00800ac4 	movi	r2,43
   42370:	d8802305 	stb	r2,140(sp)
   42374:	00800244 	movi	r2,9
   42378:	15807016 	blt	r2,r22,4253c <___vfprintf_internal_r+0x2094>
   4237c:	00800c04 	movi	r2,48
   42380:	b5800c04 	addi	r22,r22,48
   42384:	d8802345 	stb	r2,141(sp)
   42388:	dd802385 	stb	r22,142(sp)
   4238c:	d88023c4 	addi	r2,sp,143
   42390:	df0022c4 	addi	fp,sp,139
   42394:	d8c03317 	ldw	r3,204(sp)
   42398:	1739c83a 	sub	fp,r2,fp
   4239c:	d9003317 	ldw	r4,204(sp)
   423a0:	e0c7883a 	add	r3,fp,r3
   423a4:	df003a15 	stw	fp,232(sp)
   423a8:	d8c02b15 	stw	r3,172(sp)
   423ac:	00800044 	movi	r2,1
   423b0:	1100b30e 	bge	r2,r4,42680 <___vfprintf_internal_r+0x21d8>
   423b4:	d8c02b17 	ldw	r3,172(sp)
   423b8:	18c00044 	addi	r3,r3,1
   423bc:	d8c02b15 	stw	r3,172(sp)
   423c0:	1805883a 	mov	r2,r3
   423c4:	1800ac16 	blt	r3,zero,42678 <___vfprintf_internal_r+0x21d0>
   423c8:	d8003215 	stw	zero,200(sp)
   423cc:	003e5d06 	br	41d44 <__alt_mem_SHARED_MEMORY+0xfffc0d44>
   423d0:	d9002d17 	ldw	r4,180(sp)
   423d4:	d9801e04 	addi	r6,sp,120
   423d8:	b80b883a 	mov	r5,r23
   423dc:	00471980 	call	47198 <__sprint_r>
   423e0:	1039351e 	bne	r2,zero,408b8 <__alt_mem_SHARED_MEMORY+0xfffbf8b8>
   423e4:	dc402617 	ldw	r17,152(sp)
   423e8:	d8c02017 	ldw	r3,128(sp)
   423ec:	d8801f17 	ldw	r2,124(sp)
   423f0:	da000404 	addi	r8,sp,16
   423f4:	003ed606 	br	41f50 <__alt_mem_SHARED_MEMORY+0xfffc0f50>
   423f8:	182b883a 	mov	r21,r3
   423fc:	d8002a15 	stw	zero,168(sp)
   42400:	00388c06 	br	40634 <__alt_mem_SHARED_MEMORY+0xfffbf634>
   42404:	d8802a17 	ldw	r2,168(sp)
   42408:	103e071e 	bne	r2,zero,41c28 <__alt_mem_SHARED_MEMORY+0xfffc0c28>
   4240c:	dc002a15 	stw	r16,168(sp)
   42410:	003e0506 	br	41c28 <__alt_mem_SHARED_MEMORY+0xfffc0c28>
   42414:	d9002a17 	ldw	r4,168(sp)
   42418:	20c00044 	addi	r3,r4,1
   4241c:	003e0f06 	br	41c5c <__alt_mem_SHARED_MEMORY+0xfffc0c5c>
   42420:	01400184 	movi	r5,6
   42424:	d9402a15 	stw	r5,168(sp)
   42428:	003dff06 	br	41c28 <__alt_mem_SHARED_MEMORY+0xfffc0c28>
   4242c:	d8802104 	addi	r2,sp,132
   42430:	d8800315 	stw	r2,12(sp)
   42434:	d8802504 	addi	r2,sp,148
   42438:	d8800215 	stw	r2,8(sp)
   4243c:	d8802604 	addi	r2,sp,152
   42440:	d8800115 	stw	r2,4(sp)
   42444:	d8802a17 	ldw	r2,168(sp)
   42448:	d9403617 	ldw	r5,216(sp)
   4244c:	d9002d17 	ldw	r4,180(sp)
   42450:	d8800015 	stw	r2,0(sp)
   42454:	01c000c4 	movi	r7,3
   42458:	980d883a 	mov	r6,r19
   4245c:	da003d15 	stw	r8,244(sp)
   42460:	0042bd80 	call	42bd8 <_dtoa_r>
   42464:	d8c02a17 	ldw	r3,168(sp)
   42468:	da003d17 	ldw	r8,244(sp)
   4246c:	1021883a 	mov	r16,r2
   42470:	10f9883a 	add	fp,r2,r3
   42474:	81000007 	ldb	r4,0(r16)
   42478:	00800c04 	movi	r2,48
   4247c:	20805e26 	beq	r4,r2,425f8 <___vfprintf_internal_r+0x2150>
   42480:	d8c02617 	ldw	r3,152(sp)
   42484:	e0f9883a 	add	fp,fp,r3
   42488:	003e0a06 	br	41cb4 <__alt_mem_SHARED_MEMORY+0xfffc0cb4>
   4248c:	00c00b44 	movi	r3,45
   42490:	24e0003c 	xorhi	r19,r4,32768
   42494:	d8c02905 	stb	r3,164(sp)
   42498:	003de906 	br	41c40 <__alt_mem_SHARED_MEMORY+0xfffc0c40>
   4249c:	d8c03217 	ldw	r3,200(sp)
   424a0:	00c07a0e 	bge	zero,r3,4268c <___vfprintf_internal_r+0x21e4>
   424a4:	00800044 	movi	r2,1
   424a8:	d9003317 	ldw	r4,204(sp)
   424ac:	1105883a 	add	r2,r2,r4
   424b0:	d8802b15 	stw	r2,172(sp)
   424b4:	10004e16 	blt	r2,zero,425f0 <___vfprintf_internal_r+0x2148>
   424b8:	044019c4 	movi	r17,103
   424bc:	003e2106 	br	41d44 <__alt_mem_SHARED_MEMORY+0xfffc0d44>
   424c0:	d9002a17 	ldw	r4,168(sp)
   424c4:	d8802104 	addi	r2,sp,132
   424c8:	d8800315 	stw	r2,12(sp)
   424cc:	d9000015 	stw	r4,0(sp)
   424d0:	d8802504 	addi	r2,sp,148
   424d4:	d9403617 	ldw	r5,216(sp)
   424d8:	d9002d17 	ldw	r4,180(sp)
   424dc:	d8800215 	stw	r2,8(sp)
   424e0:	d8802604 	addi	r2,sp,152
   424e4:	d8800115 	stw	r2,4(sp)
   424e8:	01c000c4 	movi	r7,3
   424ec:	980d883a 	mov	r6,r19
   424f0:	da003d15 	stw	r8,244(sp)
   424f4:	0042bd80 	call	42bd8 <_dtoa_r>
   424f8:	d8c02a17 	ldw	r3,168(sp)
   424fc:	da003d17 	ldw	r8,244(sp)
   42500:	1021883a 	mov	r16,r2
   42504:	00801184 	movi	r2,70
   42508:	80f9883a 	add	fp,r16,r3
   4250c:	88bfd926 	beq	r17,r2,42474 <__alt_mem_SHARED_MEMORY+0xfffc1474>
   42510:	003de806 	br	41cb4 <__alt_mem_SHARED_MEMORY+0xfffc0cb4>
   42514:	d9002a17 	ldw	r4,168(sp)
   42518:	00c04d0e 	bge	zero,r3,42650 <___vfprintf_internal_r+0x21a8>
   4251c:	2000441e 	bne	r4,zero,42630 <___vfprintf_internal_r+0x2188>
   42520:	9480004c 	andi	r18,r18,1
   42524:	9000421e 	bne	r18,zero,42630 <___vfprintf_internal_r+0x2188>
   42528:	1805883a 	mov	r2,r3
   4252c:	18006f16 	blt	r3,zero,426ec <___vfprintf_internal_r+0x2244>
   42530:	d8c03217 	ldw	r3,200(sp)
   42534:	d8c02b15 	stw	r3,172(sp)
   42538:	003e0206 	br	41d44 <__alt_mem_SHARED_MEMORY+0xfffc0d44>
   4253c:	df0022c4 	addi	fp,sp,139
   42540:	dc002a15 	stw	r16,168(sp)
   42544:	4027883a 	mov	r19,r8
   42548:	e021883a 	mov	r16,fp
   4254c:	b009883a 	mov	r4,r22
   42550:	01400284 	movi	r5,10
   42554:	004a8ac0 	call	4a8ac <__modsi3>
   42558:	10800c04 	addi	r2,r2,48
   4255c:	843fffc4 	addi	r16,r16,-1
   42560:	b009883a 	mov	r4,r22
   42564:	01400284 	movi	r5,10
   42568:	80800005 	stb	r2,0(r16)
   4256c:	004a8280 	call	4a828 <__divsi3>
   42570:	102d883a 	mov	r22,r2
   42574:	00800244 	movi	r2,9
   42578:	15bff416 	blt	r2,r22,4254c <__alt_mem_SHARED_MEMORY+0xfffc154c>
   4257c:	9811883a 	mov	r8,r19
   42580:	b0800c04 	addi	r2,r22,48
   42584:	8027883a 	mov	r19,r16
   42588:	997fffc4 	addi	r5,r19,-1
   4258c:	98bfffc5 	stb	r2,-1(r19)
   42590:	dc002a17 	ldw	r16,168(sp)
   42594:	2f006d2e 	bgeu	r5,fp,4274c <___vfprintf_internal_r+0x22a4>
   42598:	d9c02384 	addi	r7,sp,142
   4259c:	3ccfc83a 	sub	r7,r7,r19
   425a0:	d9002344 	addi	r4,sp,141
   425a4:	e1cf883a 	add	r7,fp,r7
   425a8:	00000106 	br	425b0 <___vfprintf_internal_r+0x2108>
   425ac:	28800003 	ldbu	r2,0(r5)
   425b0:	20800005 	stb	r2,0(r4)
   425b4:	21000044 	addi	r4,r4,1
   425b8:	29400044 	addi	r5,r5,1
   425bc:	393ffb1e 	bne	r7,r4,425ac <__alt_mem_SHARED_MEMORY+0xfffc15ac>
   425c0:	d8802304 	addi	r2,sp,140
   425c4:	14c5c83a 	sub	r2,r2,r19
   425c8:	d8c02344 	addi	r3,sp,141
   425cc:	1885883a 	add	r2,r3,r2
   425d0:	003f7006 	br	42394 <__alt_mem_SHARED_MEMORY+0xfffc1394>
   425d4:	0005883a 	mov	r2,zero
   425d8:	003f0f06 	br	42218 <__alt_mem_SHARED_MEMORY+0xfffc1218>
   425dc:	d8c03217 	ldw	r3,200(sp)
   425e0:	18c00044 	addi	r3,r3,1
   425e4:	d8c02b15 	stw	r3,172(sp)
   425e8:	1805883a 	mov	r2,r3
   425ec:	183fb20e 	bge	r3,zero,424b8 <__alt_mem_SHARED_MEMORY+0xfffc14b8>
   425f0:	0005883a 	mov	r2,zero
   425f4:	003fb006 	br	424b8 <__alt_mem_SHARED_MEMORY+0xfffc14b8>
   425f8:	d9003617 	ldw	r4,216(sp)
   425fc:	000d883a 	mov	r6,zero
   42600:	000f883a 	mov	r7,zero
   42604:	980b883a 	mov	r5,r19
   42608:	d8c03c15 	stw	r3,240(sp)
   4260c:	da003d15 	stw	r8,244(sp)
   42610:	004bc800 	call	4bc80 <__eqdf2>
   42614:	d8c03c17 	ldw	r3,240(sp)
   42618:	da003d17 	ldw	r8,244(sp)
   4261c:	103f9826 	beq	r2,zero,42480 <__alt_mem_SHARED_MEMORY+0xfffc1480>
   42620:	00800044 	movi	r2,1
   42624:	10c7c83a 	sub	r3,r2,r3
   42628:	d8c02615 	stw	r3,152(sp)
   4262c:	003f9506 	br	42484 <__alt_mem_SHARED_MEMORY+0xfffc1484>
   42630:	d9002a17 	ldw	r4,168(sp)
   42634:	d8c03217 	ldw	r3,200(sp)
   42638:	20800044 	addi	r2,r4,1
   4263c:	1885883a 	add	r2,r3,r2
   42640:	d8802b15 	stw	r2,172(sp)
   42644:	103dbf0e 	bge	r2,zero,41d44 <__alt_mem_SHARED_MEMORY+0xfffc0d44>
   42648:	0005883a 	mov	r2,zero
   4264c:	003dbd06 	br	41d44 <__alt_mem_SHARED_MEMORY+0xfffc0d44>
   42650:	2000201e 	bne	r4,zero,426d4 <___vfprintf_internal_r+0x222c>
   42654:	9480004c 	andi	r18,r18,1
   42658:	90001e1e 	bne	r18,zero,426d4 <___vfprintf_internal_r+0x222c>
   4265c:	00800044 	movi	r2,1
   42660:	d8802b15 	stw	r2,172(sp)
   42664:	003db706 	br	41d44 <__alt_mem_SHARED_MEMORY+0xfffc0d44>
   42668:	00800b44 	movi	r2,45
   4266c:	05adc83a 	sub	r22,zero,r22
   42670:	d8802305 	stb	r2,140(sp)
   42674:	003f3f06 	br	42374 <__alt_mem_SHARED_MEMORY+0xfffc1374>
   42678:	0005883a 	mov	r2,zero
   4267c:	003f5206 	br	423c8 <__alt_mem_SHARED_MEMORY+0xfffc13c8>
   42680:	90a4703a 	and	r18,r18,r2
   42684:	903f4e26 	beq	r18,zero,423c0 <__alt_mem_SHARED_MEMORY+0xfffc13c0>
   42688:	003f4a06 	br	423b4 <__alt_mem_SHARED_MEMORY+0xfffc13b4>
   4268c:	00800084 	movi	r2,2
   42690:	10c5c83a 	sub	r2,r2,r3
   42694:	003f8406 	br	424a8 <__alt_mem_SHARED_MEMORY+0xfffc14a8>
   42698:	d9402e17 	ldw	r5,184(sp)
   4269c:	d9002e17 	ldw	r4,184(sp)
   426a0:	ac400043 	ldbu	r17,1(r21)
   426a4:	29400017 	ldw	r5,0(r5)
   426a8:	20800104 	addi	r2,r4,4
   426ac:	d8802e15 	stw	r2,184(sp)
   426b0:	d9402a15 	stw	r5,168(sp)
   426b4:	182b883a 	mov	r21,r3
   426b8:	283e7b0e 	bge	r5,zero,420a8 <__alt_mem_SHARED_MEMORY+0xfffc10a8>
   426bc:	8c403fcc 	andi	r17,r17,255
   426c0:	017fffc4 	movi	r5,-1
   426c4:	8c40201c 	xori	r17,r17,128
   426c8:	d9402a15 	stw	r5,168(sp)
   426cc:	8c7fe004 	addi	r17,r17,-128
   426d0:	0037d706 	br	40630 <__alt_mem_SHARED_MEMORY+0xfffbf630>
   426d4:	d8c02a17 	ldw	r3,168(sp)
   426d8:	18c00084 	addi	r3,r3,2
   426dc:	d8c02b15 	stw	r3,172(sp)
   426e0:	1805883a 	mov	r2,r3
   426e4:	183d970e 	bge	r3,zero,41d44 <__alt_mem_SHARED_MEMORY+0xfffc0d44>
   426e8:	003fd706 	br	42648 <__alt_mem_SHARED_MEMORY+0xfffc1648>
   426ec:	0005883a 	mov	r2,zero
   426f0:	003f8f06 	br	42530 <__alt_mem_SHARED_MEMORY+0xfffc1530>
   426f4:	9080004c 	andi	r2,r18,1
   426f8:	103f821e 	bne	r2,zero,42504 <__alt_mem_SHARED_MEMORY+0xfffc1504>
   426fc:	d8802117 	ldw	r2,132(sp)
   42700:	1405c83a 	sub	r2,r2,r16
   42704:	d8803315 	stw	r2,204(sp)
   42708:	b47ef426 	beq	r22,r17,422dc <__alt_mem_SHARED_MEMORY+0xfffc12dc>
   4270c:	dd802617 	ldw	r22,152(sp)
   42710:	003f1206 	br	4235c <__alt_mem_SHARED_MEMORY+0xfffc135c>
   42714:	d8c02b03 	ldbu	r3,172(sp)
   42718:	d8c02785 	stb	r3,158(sp)
   4271c:	0038df06 	br	40a9c <__alt_mem_SHARED_MEMORY+0xfffbfa9c>
   42720:	d8c02b03 	ldbu	r3,172(sp)
   42724:	d8c02785 	stb	r3,158(sp)
   42728:	0038aa06 	br	409d4 <__alt_mem_SHARED_MEMORY+0xfffbf9d4>
   4272c:	d8c02b03 	ldbu	r3,172(sp)
   42730:	d8c02785 	stb	r3,158(sp)
   42734:	003a4306 	br	41044 <__alt_mem_SHARED_MEMORY+0xfffc0044>
   42738:	d8c02b03 	ldbu	r3,172(sp)
   4273c:	d8c02785 	stb	r3,158(sp)
   42740:	003af506 	br	41318 <__alt_mem_SHARED_MEMORY+0xfffc0318>
   42744:	0005883a 	mov	r2,zero
   42748:	003d7b06 	br	41d38 <__alt_mem_SHARED_MEMORY+0xfffc0d38>
   4274c:	d8802344 	addi	r2,sp,141
   42750:	003f1006 	br	42394 <__alt_mem_SHARED_MEMORY+0xfffc1394>
   42754:	d8c02b03 	ldbu	r3,172(sp)
   42758:	d8c02785 	stb	r3,158(sp)
   4275c:	0038fd06 	br	40b54 <__alt_mem_SHARED_MEMORY+0xfffbfb54>
   42760:	d8c02b03 	ldbu	r3,172(sp)
   42764:	d8c02785 	stb	r3,158(sp)
   42768:	003a9706 	br	411c8 <__alt_mem_SHARED_MEMORY+0xfffc01c8>
   4276c:	d8c02b03 	ldbu	r3,172(sp)
   42770:	d8c02785 	stb	r3,158(sp)
   42774:	003a1806 	br	40fd8 <__alt_mem_SHARED_MEMORY+0xfffbffd8>
   42778:	d8c02b03 	ldbu	r3,172(sp)
   4277c:	d8c02785 	stb	r3,158(sp)
   42780:	003abe06 	br	4127c <__alt_mem_SHARED_MEMORY+0xfffc027c>

00042784 <__vfprintf_internal>:
   42784:	008001b4 	movhi	r2,6
   42788:	10aa8204 	addi	r2,r2,-22008
   4278c:	300f883a 	mov	r7,r6
   42790:	280d883a 	mov	r6,r5
   42794:	200b883a 	mov	r5,r4
   42798:	11000017 	ldw	r4,0(r2)
   4279c:	00404a81 	jmpi	404a8 <___vfprintf_internal_r>

000427a0 <__sbprintf>:
   427a0:	2880030b 	ldhu	r2,12(r5)
   427a4:	2ac01917 	ldw	r11,100(r5)
   427a8:	2a80038b 	ldhu	r10,14(r5)
   427ac:	2a400717 	ldw	r9,28(r5)
   427b0:	2a000917 	ldw	r8,36(r5)
   427b4:	defee204 	addi	sp,sp,-1144
   427b8:	00c10004 	movi	r3,1024
   427bc:	dc011a15 	stw	r16,1128(sp)
   427c0:	10bfff4c 	andi	r2,r2,65533
   427c4:	2821883a 	mov	r16,r5
   427c8:	d8cb883a 	add	r5,sp,r3
   427cc:	dc811c15 	stw	r18,1136(sp)
   427d0:	dc411b15 	stw	r17,1132(sp)
   427d4:	dfc11d15 	stw	ra,1140(sp)
   427d8:	2025883a 	mov	r18,r4
   427dc:	d881030d 	sth	r2,1036(sp)
   427e0:	dac11915 	stw	r11,1124(sp)
   427e4:	da81038d 	sth	r10,1038(sp)
   427e8:	da410715 	stw	r9,1052(sp)
   427ec:	da010915 	stw	r8,1060(sp)
   427f0:	dec10015 	stw	sp,1024(sp)
   427f4:	dec10415 	stw	sp,1040(sp)
   427f8:	d8c10215 	stw	r3,1032(sp)
   427fc:	d8c10515 	stw	r3,1044(sp)
   42800:	d8010615 	stw	zero,1048(sp)
   42804:	00404a80 	call	404a8 <___vfprintf_internal_r>
   42808:	1023883a 	mov	r17,r2
   4280c:	10000416 	blt	r2,zero,42820 <__sbprintf+0x80>
   42810:	d9410004 	addi	r5,sp,1024
   42814:	9009883a 	mov	r4,r18
   42818:	004447c0 	call	4447c <_fflush_r>
   4281c:	10000d1e 	bne	r2,zero,42854 <__sbprintf+0xb4>
   42820:	d881030b 	ldhu	r2,1036(sp)
   42824:	1080100c 	andi	r2,r2,64
   42828:	10000326 	beq	r2,zero,42838 <__sbprintf+0x98>
   4282c:	8080030b 	ldhu	r2,12(r16)
   42830:	10801014 	ori	r2,r2,64
   42834:	8080030d 	sth	r2,12(r16)
   42838:	8805883a 	mov	r2,r17
   4283c:	dfc11d17 	ldw	ra,1140(sp)
   42840:	dc811c17 	ldw	r18,1136(sp)
   42844:	dc411b17 	ldw	r17,1132(sp)
   42848:	dc011a17 	ldw	r16,1128(sp)
   4284c:	dec11e04 	addi	sp,sp,1144
   42850:	f800283a 	ret
   42854:	047fffc4 	movi	r17,-1
   42858:	003ff106 	br	42820 <__alt_mem_SHARED_MEMORY+0xfffc1820>

0004285c <__swsetup_r>:
   4285c:	008001b4 	movhi	r2,6
   42860:	defffd04 	addi	sp,sp,-12
   42864:	10aa8204 	addi	r2,r2,-22008
   42868:	dc400115 	stw	r17,4(sp)
   4286c:	2023883a 	mov	r17,r4
   42870:	11000017 	ldw	r4,0(r2)
   42874:	dc000015 	stw	r16,0(sp)
   42878:	dfc00215 	stw	ra,8(sp)
   4287c:	2821883a 	mov	r16,r5
   42880:	20000226 	beq	r4,zero,4288c <__swsetup_r+0x30>
   42884:	20800e17 	ldw	r2,56(r4)
   42888:	10003126 	beq	r2,zero,42950 <__swsetup_r+0xf4>
   4288c:	8080030b 	ldhu	r2,12(r16)
   42890:	10c0020c 	andi	r3,r2,8
   42894:	1009883a 	mov	r4,r2
   42898:	18000f26 	beq	r3,zero,428d8 <__swsetup_r+0x7c>
   4289c:	80c00417 	ldw	r3,16(r16)
   428a0:	18001526 	beq	r3,zero,428f8 <__swsetup_r+0x9c>
   428a4:	1100004c 	andi	r4,r2,1
   428a8:	20001c1e 	bne	r4,zero,4291c <__swsetup_r+0xc0>
   428ac:	1080008c 	andi	r2,r2,2
   428b0:	1000291e 	bne	r2,zero,42958 <__swsetup_r+0xfc>
   428b4:	80800517 	ldw	r2,20(r16)
   428b8:	80800215 	stw	r2,8(r16)
   428bc:	18001c26 	beq	r3,zero,42930 <__swsetup_r+0xd4>
   428c0:	0005883a 	mov	r2,zero
   428c4:	dfc00217 	ldw	ra,8(sp)
   428c8:	dc400117 	ldw	r17,4(sp)
   428cc:	dc000017 	ldw	r16,0(sp)
   428d0:	dec00304 	addi	sp,sp,12
   428d4:	f800283a 	ret
   428d8:	2080040c 	andi	r2,r4,16
   428dc:	10002e26 	beq	r2,zero,42998 <__swsetup_r+0x13c>
   428e0:	2080010c 	andi	r2,r4,4
   428e4:	10001e1e 	bne	r2,zero,42960 <__swsetup_r+0x104>
   428e8:	80c00417 	ldw	r3,16(r16)
   428ec:	20800214 	ori	r2,r4,8
   428f0:	8080030d 	sth	r2,12(r16)
   428f4:	183feb1e 	bne	r3,zero,428a4 <__alt_mem_SHARED_MEMORY+0xfffc18a4>
   428f8:	1100a00c 	andi	r4,r2,640
   428fc:	01408004 	movi	r5,512
   42900:	217fe826 	beq	r4,r5,428a4 <__alt_mem_SHARED_MEMORY+0xfffc18a4>
   42904:	800b883a 	mov	r5,r16
   42908:	8809883a 	mov	r4,r17
   4290c:	0044f500 	call	44f50 <__smakebuf_r>
   42910:	8080030b 	ldhu	r2,12(r16)
   42914:	80c00417 	ldw	r3,16(r16)
   42918:	003fe206 	br	428a4 <__alt_mem_SHARED_MEMORY+0xfffc18a4>
   4291c:	80800517 	ldw	r2,20(r16)
   42920:	80000215 	stw	zero,8(r16)
   42924:	0085c83a 	sub	r2,zero,r2
   42928:	80800615 	stw	r2,24(r16)
   4292c:	183fe41e 	bne	r3,zero,428c0 <__alt_mem_SHARED_MEMORY+0xfffc18c0>
   42930:	80c0030b 	ldhu	r3,12(r16)
   42934:	0005883a 	mov	r2,zero
   42938:	1900200c 	andi	r4,r3,128
   4293c:	203fe126 	beq	r4,zero,428c4 <__alt_mem_SHARED_MEMORY+0xfffc18c4>
   42940:	18c01014 	ori	r3,r3,64
   42944:	80c0030d 	sth	r3,12(r16)
   42948:	00bfffc4 	movi	r2,-1
   4294c:	003fdd06 	br	428c4 <__alt_mem_SHARED_MEMORY+0xfffc18c4>
   42950:	00448680 	call	44868 <__sinit>
   42954:	003fcd06 	br	4288c <__alt_mem_SHARED_MEMORY+0xfffc188c>
   42958:	0005883a 	mov	r2,zero
   4295c:	003fd606 	br	428b8 <__alt_mem_SHARED_MEMORY+0xfffc18b8>
   42960:	81400c17 	ldw	r5,48(r16)
   42964:	28000626 	beq	r5,zero,42980 <__swsetup_r+0x124>
   42968:	80801004 	addi	r2,r16,64
   4296c:	28800326 	beq	r5,r2,4297c <__swsetup_r+0x120>
   42970:	8809883a 	mov	r4,r17
   42974:	00449dc0 	call	449dc <_free_r>
   42978:	8100030b 	ldhu	r4,12(r16)
   4297c:	80000c15 	stw	zero,48(r16)
   42980:	80c00417 	ldw	r3,16(r16)
   42984:	00bff6c4 	movi	r2,-37
   42988:	1108703a 	and	r4,r2,r4
   4298c:	80000115 	stw	zero,4(r16)
   42990:	80c00015 	stw	r3,0(r16)
   42994:	003fd506 	br	428ec <__alt_mem_SHARED_MEMORY+0xfffc18ec>
   42998:	00800244 	movi	r2,9
   4299c:	88800015 	stw	r2,0(r17)
   429a0:	20801014 	ori	r2,r4,64
   429a4:	8080030d 	sth	r2,12(r16)
   429a8:	00bfffc4 	movi	r2,-1
   429ac:	003fc506 	br	428c4 <__alt_mem_SHARED_MEMORY+0xfffc18c4>

000429b0 <quorem>:
   429b0:	defff204 	addi	sp,sp,-56
   429b4:	ddc00b15 	stw	r23,44(sp)
   429b8:	20800417 	ldw	r2,16(r4)
   429bc:	2dc00417 	ldw	r23,16(r5)
   429c0:	dfc00d15 	stw	ra,52(sp)
   429c4:	df000c15 	stw	fp,48(sp)
   429c8:	dd800a15 	stw	r22,40(sp)
   429cc:	dd400915 	stw	r21,36(sp)
   429d0:	dd000815 	stw	r20,32(sp)
   429d4:	dcc00715 	stw	r19,28(sp)
   429d8:	dc800615 	stw	r18,24(sp)
   429dc:	dc400515 	stw	r17,20(sp)
   429e0:	dc000415 	stw	r16,16(sp)
   429e4:	15c07a16 	blt	r2,r23,42bd0 <quorem+0x220>
   429e8:	bdffffc4 	addi	r23,r23,-1
   429ec:	bde9883a 	add	r20,r23,r23
   429f0:	28c00504 	addi	r3,r5,20
   429f4:	a529883a 	add	r20,r20,r20
   429f8:	1d39883a 	add	fp,r3,r20
   429fc:	24c00504 	addi	r19,r4,20
   42a00:	d9400215 	stw	r5,8(sp)
   42a04:	9d29883a 	add	r20,r19,r20
   42a08:	e1400017 	ldw	r5,0(fp)
   42a0c:	d9000015 	stw	r4,0(sp)
   42a10:	a1000017 	ldw	r4,0(r20)
   42a14:	29400044 	addi	r5,r5,1
   42a18:	d8c00115 	stw	r3,4(sp)
   42a1c:	dd000315 	stw	r20,12(sp)
   42a20:	004a9200 	call	4a920 <__udivsi3>
   42a24:	1025883a 	mov	r18,r2
   42a28:	10003026 	beq	r2,zero,42aec <quorem+0x13c>
   42a2c:	dc400117 	ldw	r17,4(sp)
   42a30:	9829883a 	mov	r20,r19
   42a34:	002d883a 	mov	r22,zero
   42a38:	0021883a 	mov	r16,zero
   42a3c:	8d400017 	ldw	r21,0(r17)
   42a40:	900b883a 	mov	r5,r18
   42a44:	8c400104 	addi	r17,r17,4
   42a48:	a93fffcc 	andi	r4,r21,65535
   42a4c:	004a9dc0 	call	4a9dc <__mulsi3>
   42a50:	a808d43a 	srli	r4,r21,16
   42a54:	900b883a 	mov	r5,r18
   42a58:	15ad883a 	add	r22,r2,r22
   42a5c:	004a9dc0 	call	4a9dc <__mulsi3>
   42a60:	a1000017 	ldw	r4,0(r20)
   42a64:	b00cd43a 	srli	r6,r22,16
   42a68:	b0ffffcc 	andi	r3,r22,65535
   42a6c:	217fffcc 	andi	r5,r4,65535
   42a70:	2c21883a 	add	r16,r5,r16
   42a74:	80c7c83a 	sub	r3,r16,r3
   42a78:	2008d43a 	srli	r4,r4,16
   42a7c:	1185883a 	add	r2,r2,r6
   42a80:	1821d43a 	srai	r16,r3,16
   42a84:	117fffcc 	andi	r5,r2,65535
   42a88:	2149c83a 	sub	r4,r4,r5
   42a8c:	2421883a 	add	r16,r4,r16
   42a90:	8008943a 	slli	r4,r16,16
   42a94:	18ffffcc 	andi	r3,r3,65535
   42a98:	102cd43a 	srli	r22,r2,16
   42a9c:	20c8b03a 	or	r4,r4,r3
   42aa0:	a1000015 	stw	r4,0(r20)
   42aa4:	8021d43a 	srai	r16,r16,16
   42aa8:	a5000104 	addi	r20,r20,4
   42aac:	e47fe32e 	bgeu	fp,r17,42a3c <__alt_mem_SHARED_MEMORY+0xfffc1a3c>
   42ab0:	d8c00317 	ldw	r3,12(sp)
   42ab4:	18800017 	ldw	r2,0(r3)
   42ab8:	10000c1e 	bne	r2,zero,42aec <quorem+0x13c>
   42abc:	18bfff04 	addi	r2,r3,-4
   42ac0:	9880082e 	bgeu	r19,r2,42ae4 <quorem+0x134>
   42ac4:	18ffff17 	ldw	r3,-4(r3)
   42ac8:	18000326 	beq	r3,zero,42ad8 <quorem+0x128>
   42acc:	00000506 	br	42ae4 <quorem+0x134>
   42ad0:	10c00017 	ldw	r3,0(r2)
   42ad4:	1800031e 	bne	r3,zero,42ae4 <quorem+0x134>
   42ad8:	10bfff04 	addi	r2,r2,-4
   42adc:	bdffffc4 	addi	r23,r23,-1
   42ae0:	98bffb36 	bltu	r19,r2,42ad0 <__alt_mem_SHARED_MEMORY+0xfffc1ad0>
   42ae4:	d8c00017 	ldw	r3,0(sp)
   42ae8:	1dc00415 	stw	r23,16(r3)
   42aec:	d9400217 	ldw	r5,8(sp)
   42af0:	d9000017 	ldw	r4,0(sp)
   42af4:	00465f00 	call	465f0 <__mcmp>
   42af8:	10002816 	blt	r2,zero,42b9c <quorem+0x1ec>
   42afc:	dc400117 	ldw	r17,4(sp)
   42b00:	94800044 	addi	r18,r18,1
   42b04:	980d883a 	mov	r6,r19
   42b08:	0007883a 	mov	r3,zero
   42b0c:	31000017 	ldw	r4,0(r6)
   42b10:	89400017 	ldw	r5,0(r17)
   42b14:	31800104 	addi	r6,r6,4
   42b18:	20bfffcc 	andi	r2,r4,65535
   42b1c:	10c7883a 	add	r3,r2,r3
   42b20:	28bfffcc 	andi	r2,r5,65535
   42b24:	1885c83a 	sub	r2,r3,r2
   42b28:	280ad43a 	srli	r5,r5,16
   42b2c:	2008d43a 	srli	r4,r4,16
   42b30:	1007d43a 	srai	r3,r2,16
   42b34:	10bfffcc 	andi	r2,r2,65535
   42b38:	2149c83a 	sub	r4,r4,r5
   42b3c:	20c9883a 	add	r4,r4,r3
   42b40:	200a943a 	slli	r5,r4,16
   42b44:	8c400104 	addi	r17,r17,4
   42b48:	2007d43a 	srai	r3,r4,16
   42b4c:	2884b03a 	or	r2,r5,r2
   42b50:	30bfff15 	stw	r2,-4(r6)
   42b54:	e47fed2e 	bgeu	fp,r17,42b0c <__alt_mem_SHARED_MEMORY+0xfffc1b0c>
   42b58:	bdc5883a 	add	r2,r23,r23
   42b5c:	1085883a 	add	r2,r2,r2
   42b60:	9887883a 	add	r3,r19,r2
   42b64:	18800017 	ldw	r2,0(r3)
   42b68:	10000c1e 	bne	r2,zero,42b9c <quorem+0x1ec>
   42b6c:	18bfff04 	addi	r2,r3,-4
   42b70:	9880082e 	bgeu	r19,r2,42b94 <quorem+0x1e4>
   42b74:	18ffff17 	ldw	r3,-4(r3)
   42b78:	18000326 	beq	r3,zero,42b88 <quorem+0x1d8>
   42b7c:	00000506 	br	42b94 <quorem+0x1e4>
   42b80:	10c00017 	ldw	r3,0(r2)
   42b84:	1800031e 	bne	r3,zero,42b94 <quorem+0x1e4>
   42b88:	10bfff04 	addi	r2,r2,-4
   42b8c:	bdffffc4 	addi	r23,r23,-1
   42b90:	98bffb36 	bltu	r19,r2,42b80 <__alt_mem_SHARED_MEMORY+0xfffc1b80>
   42b94:	d8c00017 	ldw	r3,0(sp)
   42b98:	1dc00415 	stw	r23,16(r3)
   42b9c:	9005883a 	mov	r2,r18
   42ba0:	dfc00d17 	ldw	ra,52(sp)
   42ba4:	df000c17 	ldw	fp,48(sp)
   42ba8:	ddc00b17 	ldw	r23,44(sp)
   42bac:	dd800a17 	ldw	r22,40(sp)
   42bb0:	dd400917 	ldw	r21,36(sp)
   42bb4:	dd000817 	ldw	r20,32(sp)
   42bb8:	dcc00717 	ldw	r19,28(sp)
   42bbc:	dc800617 	ldw	r18,24(sp)
   42bc0:	dc400517 	ldw	r17,20(sp)
   42bc4:	dc000417 	ldw	r16,16(sp)
   42bc8:	dec00e04 	addi	sp,sp,56
   42bcc:	f800283a 	ret
   42bd0:	0005883a 	mov	r2,zero
   42bd4:	003ff206 	br	42ba0 <__alt_mem_SHARED_MEMORY+0xfffc1ba0>

00042bd8 <_dtoa_r>:
   42bd8:	20801017 	ldw	r2,64(r4)
   42bdc:	deffde04 	addi	sp,sp,-136
   42be0:	df002015 	stw	fp,128(sp)
   42be4:	dcc01b15 	stw	r19,108(sp)
   42be8:	dc801a15 	stw	r18,104(sp)
   42bec:	dc401915 	stw	r17,100(sp)
   42bf0:	dc001815 	stw	r16,96(sp)
   42bf4:	dfc02115 	stw	ra,132(sp)
   42bf8:	ddc01f15 	stw	r23,124(sp)
   42bfc:	dd801e15 	stw	r22,120(sp)
   42c00:	dd401d15 	stw	r21,116(sp)
   42c04:	dd001c15 	stw	r20,112(sp)
   42c08:	d9c00315 	stw	r7,12(sp)
   42c0c:	2039883a 	mov	fp,r4
   42c10:	3023883a 	mov	r17,r6
   42c14:	2825883a 	mov	r18,r5
   42c18:	dc002417 	ldw	r16,144(sp)
   42c1c:	3027883a 	mov	r19,r6
   42c20:	10000826 	beq	r2,zero,42c44 <_dtoa_r+0x6c>
   42c24:	21801117 	ldw	r6,68(r4)
   42c28:	00c00044 	movi	r3,1
   42c2c:	100b883a 	mov	r5,r2
   42c30:	1986983a 	sll	r3,r3,r6
   42c34:	11800115 	stw	r6,4(r2)
   42c38:	10c00215 	stw	r3,8(r2)
   42c3c:	0045d140 	call	45d14 <_Bfree>
   42c40:	e0001015 	stw	zero,64(fp)
   42c44:	88002e16 	blt	r17,zero,42d00 <_dtoa_r+0x128>
   42c48:	80000015 	stw	zero,0(r16)
   42c4c:	889ffc2c 	andhi	r2,r17,32752
   42c50:	00dffc34 	movhi	r3,32752
   42c54:	10c01c26 	beq	r2,r3,42cc8 <_dtoa_r+0xf0>
   42c58:	000d883a 	mov	r6,zero
   42c5c:	000f883a 	mov	r7,zero
   42c60:	9009883a 	mov	r4,r18
   42c64:	980b883a 	mov	r5,r19
   42c68:	004bc800 	call	4bc80 <__eqdf2>
   42c6c:	10002b1e 	bne	r2,zero,42d1c <_dtoa_r+0x144>
   42c70:	d9c02317 	ldw	r7,140(sp)
   42c74:	00800044 	movi	r2,1
   42c78:	38800015 	stw	r2,0(r7)
   42c7c:	d8802517 	ldw	r2,148(sp)
   42c80:	10019e26 	beq	r2,zero,432fc <_dtoa_r+0x724>
   42c84:	d8c02517 	ldw	r3,148(sp)
   42c88:	008001b4 	movhi	r2,6
   42c8c:	10a2d544 	addi	r2,r2,-29867
   42c90:	18800015 	stw	r2,0(r3)
   42c94:	10bfffc4 	addi	r2,r2,-1
   42c98:	dfc02117 	ldw	ra,132(sp)
   42c9c:	df002017 	ldw	fp,128(sp)
   42ca0:	ddc01f17 	ldw	r23,124(sp)
   42ca4:	dd801e17 	ldw	r22,120(sp)
   42ca8:	dd401d17 	ldw	r21,116(sp)
   42cac:	dd001c17 	ldw	r20,112(sp)
   42cb0:	dcc01b17 	ldw	r19,108(sp)
   42cb4:	dc801a17 	ldw	r18,104(sp)
   42cb8:	dc401917 	ldw	r17,100(sp)
   42cbc:	dc001817 	ldw	r16,96(sp)
   42cc0:	dec02204 	addi	sp,sp,136
   42cc4:	f800283a 	ret
   42cc8:	d8c02317 	ldw	r3,140(sp)
   42ccc:	0089c3c4 	movi	r2,9999
   42cd0:	18800015 	stw	r2,0(r3)
   42cd4:	90017726 	beq	r18,zero,432b4 <_dtoa_r+0x6dc>
   42cd8:	008001b4 	movhi	r2,6
   42cdc:	10a2e104 	addi	r2,r2,-29820
   42ce0:	d9002517 	ldw	r4,148(sp)
   42ce4:	203fec26 	beq	r4,zero,42c98 <__alt_mem_SHARED_MEMORY+0xfffc1c98>
   42ce8:	10c000c7 	ldb	r3,3(r2)
   42cec:	1801781e 	bne	r3,zero,432d0 <_dtoa_r+0x6f8>
   42cf0:	10c000c4 	addi	r3,r2,3
   42cf4:	d9802517 	ldw	r6,148(sp)
   42cf8:	30c00015 	stw	r3,0(r6)
   42cfc:	003fe606 	br	42c98 <__alt_mem_SHARED_MEMORY+0xfffc1c98>
   42d00:	04e00034 	movhi	r19,32768
   42d04:	9cffffc4 	addi	r19,r19,-1
   42d08:	00800044 	movi	r2,1
   42d0c:	8ce6703a 	and	r19,r17,r19
   42d10:	80800015 	stw	r2,0(r16)
   42d14:	9823883a 	mov	r17,r19
   42d18:	003fcc06 	br	42c4c <__alt_mem_SHARED_MEMORY+0xfffc1c4c>
   42d1c:	d8800204 	addi	r2,sp,8
   42d20:	d8800015 	stw	r2,0(sp)
   42d24:	d9c00104 	addi	r7,sp,4
   42d28:	900b883a 	mov	r5,r18
   42d2c:	980d883a 	mov	r6,r19
   42d30:	e009883a 	mov	r4,fp
   42d34:	8820d53a 	srli	r16,r17,20
   42d38:	00469bc0 	call	469bc <__d2b>
   42d3c:	d8800915 	stw	r2,36(sp)
   42d40:	8001651e 	bne	r16,zero,432d8 <_dtoa_r+0x700>
   42d44:	dd800217 	ldw	r22,8(sp)
   42d48:	dc000117 	ldw	r16,4(sp)
   42d4c:	00800804 	movi	r2,32
   42d50:	b421883a 	add	r16,r22,r16
   42d54:	80c10c84 	addi	r3,r16,1074
   42d58:	10c2d10e 	bge	r2,r3,438a0 <_dtoa_r+0xcc8>
   42d5c:	00801004 	movi	r2,64
   42d60:	81010484 	addi	r4,r16,1042
   42d64:	10c7c83a 	sub	r3,r2,r3
   42d68:	9108d83a 	srl	r4,r18,r4
   42d6c:	88e2983a 	sll	r17,r17,r3
   42d70:	2448b03a 	or	r4,r4,r17
   42d74:	004d19c0 	call	4d19c <__floatunsidf>
   42d78:	017f8434 	movhi	r5,65040
   42d7c:	01800044 	movi	r6,1
   42d80:	1009883a 	mov	r4,r2
   42d84:	194b883a 	add	r5,r3,r5
   42d88:	843fffc4 	addi	r16,r16,-1
   42d8c:	d9801115 	stw	r6,68(sp)
   42d90:	000d883a 	mov	r6,zero
   42d94:	01cffe34 	movhi	r7,16376
   42d98:	004c7440 	call	4c744 <__subdf3>
   42d9c:	0198dbf4 	movhi	r6,25455
   42da0:	01cff4f4 	movhi	r7,16339
   42da4:	3190d844 	addi	r6,r6,17249
   42da8:	39e1e9c4 	addi	r7,r7,-30809
   42dac:	1009883a 	mov	r4,r2
   42db0:	180b883a 	mov	r5,r3
   42db4:	004bed80 	call	4bed8 <__muldf3>
   42db8:	01a2d874 	movhi	r6,35681
   42dbc:	01cff1f4 	movhi	r7,16327
   42dc0:	31b22cc4 	addi	r6,r6,-14157
   42dc4:	39e28a04 	addi	r7,r7,-30168
   42dc8:	180b883a 	mov	r5,r3
   42dcc:	1009883a 	mov	r4,r2
   42dd0:	004aa040 	call	4aa04 <__adddf3>
   42dd4:	8009883a 	mov	r4,r16
   42dd8:	1029883a 	mov	r20,r2
   42ddc:	1823883a 	mov	r17,r3
   42de0:	004d0c00 	call	4d0c0 <__floatsidf>
   42de4:	019427f4 	movhi	r6,20639
   42de8:	01cff4f4 	movhi	r7,16339
   42dec:	319e7ec4 	addi	r6,r6,31227
   42df0:	39d104c4 	addi	r7,r7,17427
   42df4:	1009883a 	mov	r4,r2
   42df8:	180b883a 	mov	r5,r3
   42dfc:	004bed80 	call	4bed8 <__muldf3>
   42e00:	100d883a 	mov	r6,r2
   42e04:	180f883a 	mov	r7,r3
   42e08:	a009883a 	mov	r4,r20
   42e0c:	880b883a 	mov	r5,r17
   42e10:	004aa040 	call	4aa04 <__adddf3>
   42e14:	1009883a 	mov	r4,r2
   42e18:	180b883a 	mov	r5,r3
   42e1c:	1029883a 	mov	r20,r2
   42e20:	1823883a 	mov	r17,r3
   42e24:	004d0400 	call	4d040 <__fixdfsi>
   42e28:	000d883a 	mov	r6,zero
   42e2c:	000f883a 	mov	r7,zero
   42e30:	a009883a 	mov	r4,r20
   42e34:	880b883a 	mov	r5,r17
   42e38:	d8800515 	stw	r2,20(sp)
   42e3c:	004bde40 	call	4bde4 <__ledf2>
   42e40:	10028716 	blt	r2,zero,43860 <_dtoa_r+0xc88>
   42e44:	d8c00517 	ldw	r3,20(sp)
   42e48:	00800584 	movi	r2,22
   42e4c:	10c27536 	bltu	r2,r3,43824 <_dtoa_r+0xc4c>
   42e50:	180490fa 	slli	r2,r3,3
   42e54:	00c001b4 	movhi	r3,6
   42e58:	18e2fd04 	addi	r3,r3,-29708
   42e5c:	1885883a 	add	r2,r3,r2
   42e60:	11000017 	ldw	r4,0(r2)
   42e64:	11400117 	ldw	r5,4(r2)
   42e68:	900d883a 	mov	r6,r18
   42e6c:	980f883a 	mov	r7,r19
   42e70:	004bd080 	call	4bd08 <__gedf2>
   42e74:	00828d0e 	bge	zero,r2,438ac <_dtoa_r+0xcd4>
   42e78:	d9000517 	ldw	r4,20(sp)
   42e7c:	d8000e15 	stw	zero,56(sp)
   42e80:	213fffc4 	addi	r4,r4,-1
   42e84:	d9000515 	stw	r4,20(sp)
   42e88:	b42dc83a 	sub	r22,r22,r16
   42e8c:	b5bfffc4 	addi	r22,r22,-1
   42e90:	b0026f16 	blt	r22,zero,43850 <_dtoa_r+0xc78>
   42e94:	d8000815 	stw	zero,32(sp)
   42e98:	d9c00517 	ldw	r7,20(sp)
   42e9c:	38026416 	blt	r7,zero,43830 <_dtoa_r+0xc58>
   42ea0:	b1ed883a 	add	r22,r22,r7
   42ea4:	d9c00d15 	stw	r7,52(sp)
   42ea8:	d8000a15 	stw	zero,40(sp)
   42eac:	d9800317 	ldw	r6,12(sp)
   42eb0:	00800244 	movi	r2,9
   42eb4:	11811436 	bltu	r2,r6,43308 <_dtoa_r+0x730>
   42eb8:	00800144 	movi	r2,5
   42ebc:	1184e10e 	bge	r2,r6,44244 <_dtoa_r+0x166c>
   42ec0:	31bfff04 	addi	r6,r6,-4
   42ec4:	d9800315 	stw	r6,12(sp)
   42ec8:	0023883a 	mov	r17,zero
   42ecc:	d9800317 	ldw	r6,12(sp)
   42ed0:	008000c4 	movi	r2,3
   42ed4:	30836726 	beq	r6,r2,43c74 <_dtoa_r+0x109c>
   42ed8:	1183410e 	bge	r2,r6,43be0 <_dtoa_r+0x1008>
   42edc:	d9c00317 	ldw	r7,12(sp)
   42ee0:	00800104 	movi	r2,4
   42ee4:	38827c26 	beq	r7,r2,438d8 <_dtoa_r+0xd00>
   42ee8:	00800144 	movi	r2,5
   42eec:	3884c41e 	bne	r7,r2,44200 <_dtoa_r+0x1628>
   42ef0:	00800044 	movi	r2,1
   42ef4:	d8800b15 	stw	r2,44(sp)
   42ef8:	d8c00517 	ldw	r3,20(sp)
   42efc:	d9002217 	ldw	r4,136(sp)
   42f00:	1907883a 	add	r3,r3,r4
   42f04:	19800044 	addi	r6,r3,1
   42f08:	d8c00c15 	stw	r3,48(sp)
   42f0c:	d9800615 	stw	r6,24(sp)
   42f10:	0183a40e 	bge	zero,r6,43da4 <_dtoa_r+0x11cc>
   42f14:	d9800617 	ldw	r6,24(sp)
   42f18:	3021883a 	mov	r16,r6
   42f1c:	e0001115 	stw	zero,68(fp)
   42f20:	008005c4 	movi	r2,23
   42f24:	1184c92e 	bgeu	r2,r6,4424c <_dtoa_r+0x1674>
   42f28:	00c00044 	movi	r3,1
   42f2c:	00800104 	movi	r2,4
   42f30:	1085883a 	add	r2,r2,r2
   42f34:	11000504 	addi	r4,r2,20
   42f38:	180b883a 	mov	r5,r3
   42f3c:	18c00044 	addi	r3,r3,1
   42f40:	313ffb2e 	bgeu	r6,r4,42f30 <__alt_mem_SHARED_MEMORY+0xfffc1f30>
   42f44:	e1401115 	stw	r5,68(fp)
   42f48:	e009883a 	mov	r4,fp
   42f4c:	0045c6c0 	call	45c6c <_Balloc>
   42f50:	d8800715 	stw	r2,28(sp)
   42f54:	e0801015 	stw	r2,64(fp)
   42f58:	00800384 	movi	r2,14
   42f5c:	1400f736 	bltu	r2,r16,4333c <_dtoa_r+0x764>
   42f60:	8800f626 	beq	r17,zero,4333c <_dtoa_r+0x764>
   42f64:	d9c00517 	ldw	r7,20(sp)
   42f68:	01c39a0e 	bge	zero,r7,43dd4 <_dtoa_r+0x11fc>
   42f6c:	388003cc 	andi	r2,r7,15
   42f70:	100490fa 	slli	r2,r2,3
   42f74:	382bd13a 	srai	r21,r7,4
   42f78:	00c001b4 	movhi	r3,6
   42f7c:	18e2fd04 	addi	r3,r3,-29708
   42f80:	1885883a 	add	r2,r3,r2
   42f84:	a8c0040c 	andi	r3,r21,16
   42f88:	12400017 	ldw	r9,0(r2)
   42f8c:	12000117 	ldw	r8,4(r2)
   42f90:	18037926 	beq	r3,zero,43d78 <_dtoa_r+0x11a0>
   42f94:	008001b4 	movhi	r2,6
   42f98:	10a2f304 	addi	r2,r2,-29748
   42f9c:	11800817 	ldw	r6,32(r2)
   42fa0:	11c00917 	ldw	r7,36(r2)
   42fa4:	9009883a 	mov	r4,r18
   42fa8:	980b883a 	mov	r5,r19
   42fac:	da001715 	stw	r8,92(sp)
   42fb0:	da401615 	stw	r9,88(sp)
   42fb4:	004b2b00 	call	4b2b0 <__divdf3>
   42fb8:	da001717 	ldw	r8,92(sp)
   42fbc:	da401617 	ldw	r9,88(sp)
   42fc0:	ad4003cc 	andi	r21,r21,15
   42fc4:	040000c4 	movi	r16,3
   42fc8:	1023883a 	mov	r17,r2
   42fcc:	1829883a 	mov	r20,r3
   42fd0:	a8001126 	beq	r21,zero,43018 <_dtoa_r+0x440>
   42fd4:	05c001b4 	movhi	r23,6
   42fd8:	bde2f304 	addi	r23,r23,-29748
   42fdc:	4805883a 	mov	r2,r9
   42fe0:	4007883a 	mov	r3,r8
   42fe4:	a980004c 	andi	r6,r21,1
   42fe8:	1009883a 	mov	r4,r2
   42fec:	a82bd07a 	srai	r21,r21,1
   42ff0:	180b883a 	mov	r5,r3
   42ff4:	30000426 	beq	r6,zero,43008 <_dtoa_r+0x430>
   42ff8:	b9800017 	ldw	r6,0(r23)
   42ffc:	b9c00117 	ldw	r7,4(r23)
   43000:	84000044 	addi	r16,r16,1
   43004:	004bed80 	call	4bed8 <__muldf3>
   43008:	bdc00204 	addi	r23,r23,8
   4300c:	a83ff51e 	bne	r21,zero,42fe4 <__alt_mem_SHARED_MEMORY+0xfffc1fe4>
   43010:	1013883a 	mov	r9,r2
   43014:	1811883a 	mov	r8,r3
   43018:	480d883a 	mov	r6,r9
   4301c:	400f883a 	mov	r7,r8
   43020:	8809883a 	mov	r4,r17
   43024:	a00b883a 	mov	r5,r20
   43028:	004b2b00 	call	4b2b0 <__divdf3>
   4302c:	d8800f15 	stw	r2,60(sp)
   43030:	d8c01015 	stw	r3,64(sp)
   43034:	d8c00e17 	ldw	r3,56(sp)
   43038:	18000626 	beq	r3,zero,43054 <_dtoa_r+0x47c>
   4303c:	d9000f17 	ldw	r4,60(sp)
   43040:	d9401017 	ldw	r5,64(sp)
   43044:	000d883a 	mov	r6,zero
   43048:	01cffc34 	movhi	r7,16368
   4304c:	004bde40 	call	4bde4 <__ledf2>
   43050:	10040b16 	blt	r2,zero,44080 <_dtoa_r+0x14a8>
   43054:	8009883a 	mov	r4,r16
   43058:	004d0c00 	call	4d0c0 <__floatsidf>
   4305c:	d9800f17 	ldw	r6,60(sp)
   43060:	d9c01017 	ldw	r7,64(sp)
   43064:	1009883a 	mov	r4,r2
   43068:	180b883a 	mov	r5,r3
   4306c:	004bed80 	call	4bed8 <__muldf3>
   43070:	000d883a 	mov	r6,zero
   43074:	01d00734 	movhi	r7,16412
   43078:	1009883a 	mov	r4,r2
   4307c:	180b883a 	mov	r5,r3
   43080:	004aa040 	call	4aa04 <__adddf3>
   43084:	1021883a 	mov	r16,r2
   43088:	d8800617 	ldw	r2,24(sp)
   4308c:	047f3034 	movhi	r17,64704
   43090:	1c63883a 	add	r17,r3,r17
   43094:	10031826 	beq	r2,zero,43cf8 <_dtoa_r+0x1120>
   43098:	d8c00517 	ldw	r3,20(sp)
   4309c:	db000617 	ldw	r12,24(sp)
   430a0:	d8c01315 	stw	r3,76(sp)
   430a4:	d9000b17 	ldw	r4,44(sp)
   430a8:	20038f26 	beq	r4,zero,43ee8 <_dtoa_r+0x1310>
   430ac:	60bfffc4 	addi	r2,r12,-1
   430b0:	100490fa 	slli	r2,r2,3
   430b4:	00c001b4 	movhi	r3,6
   430b8:	18e2fd04 	addi	r3,r3,-29708
   430bc:	1885883a 	add	r2,r3,r2
   430c0:	11800017 	ldw	r6,0(r2)
   430c4:	11c00117 	ldw	r7,4(r2)
   430c8:	d8800717 	ldw	r2,28(sp)
   430cc:	0009883a 	mov	r4,zero
   430d0:	014ff834 	movhi	r5,16352
   430d4:	db001615 	stw	r12,88(sp)
   430d8:	15c00044 	addi	r23,r2,1
   430dc:	004b2b00 	call	4b2b0 <__divdf3>
   430e0:	800d883a 	mov	r6,r16
   430e4:	880f883a 	mov	r7,r17
   430e8:	1009883a 	mov	r4,r2
   430ec:	180b883a 	mov	r5,r3
   430f0:	004c7440 	call	4c744 <__subdf3>
   430f4:	d9401017 	ldw	r5,64(sp)
   430f8:	d9000f17 	ldw	r4,60(sp)
   430fc:	102b883a 	mov	r21,r2
   43100:	d8c01215 	stw	r3,72(sp)
   43104:	004d0400 	call	4d040 <__fixdfsi>
   43108:	1009883a 	mov	r4,r2
   4310c:	1029883a 	mov	r20,r2
   43110:	004d0c00 	call	4d0c0 <__floatsidf>
   43114:	d9000f17 	ldw	r4,60(sp)
   43118:	d9401017 	ldw	r5,64(sp)
   4311c:	100d883a 	mov	r6,r2
   43120:	180f883a 	mov	r7,r3
   43124:	004c7440 	call	4c744 <__subdf3>
   43128:	1823883a 	mov	r17,r3
   4312c:	d8c00717 	ldw	r3,28(sp)
   43130:	d9401217 	ldw	r5,72(sp)
   43134:	a2000c04 	addi	r8,r20,48
   43138:	1021883a 	mov	r16,r2
   4313c:	1a000005 	stb	r8,0(r3)
   43140:	800d883a 	mov	r6,r16
   43144:	880f883a 	mov	r7,r17
   43148:	a809883a 	mov	r4,r21
   4314c:	4029883a 	mov	r20,r8
   43150:	004bd080 	call	4bd08 <__gedf2>
   43154:	00841d16 	blt	zero,r2,441cc <_dtoa_r+0x15f4>
   43158:	800d883a 	mov	r6,r16
   4315c:	880f883a 	mov	r7,r17
   43160:	0009883a 	mov	r4,zero
   43164:	014ffc34 	movhi	r5,16368
   43168:	004c7440 	call	4c744 <__subdf3>
   4316c:	d9401217 	ldw	r5,72(sp)
   43170:	100d883a 	mov	r6,r2
   43174:	180f883a 	mov	r7,r3
   43178:	a809883a 	mov	r4,r21
   4317c:	004bd080 	call	4bd08 <__gedf2>
   43180:	db001617 	ldw	r12,88(sp)
   43184:	00840e16 	blt	zero,r2,441c0 <_dtoa_r+0x15e8>
   43188:	00800044 	movi	r2,1
   4318c:	13006b0e 	bge	r2,r12,4333c <_dtoa_r+0x764>
   43190:	d9000717 	ldw	r4,28(sp)
   43194:	dd800f15 	stw	r22,60(sp)
   43198:	dcc01015 	stw	r19,64(sp)
   4319c:	2319883a 	add	r12,r4,r12
   431a0:	dcc01217 	ldw	r19,72(sp)
   431a4:	602d883a 	mov	r22,r12
   431a8:	dc801215 	stw	r18,72(sp)
   431ac:	b825883a 	mov	r18,r23
   431b0:	00000906 	br	431d8 <_dtoa_r+0x600>
   431b4:	004c7440 	call	4c744 <__subdf3>
   431b8:	a80d883a 	mov	r6,r21
   431bc:	980f883a 	mov	r7,r19
   431c0:	1009883a 	mov	r4,r2
   431c4:	180b883a 	mov	r5,r3
   431c8:	004bde40 	call	4bde4 <__ledf2>
   431cc:	1003e816 	blt	r2,zero,44170 <_dtoa_r+0x1598>
   431d0:	b825883a 	mov	r18,r23
   431d4:	bd83e926 	beq	r23,r22,4417c <_dtoa_r+0x15a4>
   431d8:	a809883a 	mov	r4,r21
   431dc:	980b883a 	mov	r5,r19
   431e0:	000d883a 	mov	r6,zero
   431e4:	01d00934 	movhi	r7,16420
   431e8:	004bed80 	call	4bed8 <__muldf3>
   431ec:	000d883a 	mov	r6,zero
   431f0:	01d00934 	movhi	r7,16420
   431f4:	8009883a 	mov	r4,r16
   431f8:	880b883a 	mov	r5,r17
   431fc:	102b883a 	mov	r21,r2
   43200:	1827883a 	mov	r19,r3
   43204:	004bed80 	call	4bed8 <__muldf3>
   43208:	180b883a 	mov	r5,r3
   4320c:	1009883a 	mov	r4,r2
   43210:	1821883a 	mov	r16,r3
   43214:	1023883a 	mov	r17,r2
   43218:	004d0400 	call	4d040 <__fixdfsi>
   4321c:	1009883a 	mov	r4,r2
   43220:	1029883a 	mov	r20,r2
   43224:	004d0c00 	call	4d0c0 <__floatsidf>
   43228:	8809883a 	mov	r4,r17
   4322c:	800b883a 	mov	r5,r16
   43230:	100d883a 	mov	r6,r2
   43234:	180f883a 	mov	r7,r3
   43238:	004c7440 	call	4c744 <__subdf3>
   4323c:	a5000c04 	addi	r20,r20,48
   43240:	a80d883a 	mov	r6,r21
   43244:	980f883a 	mov	r7,r19
   43248:	1009883a 	mov	r4,r2
   4324c:	180b883a 	mov	r5,r3
   43250:	95000005 	stb	r20,0(r18)
   43254:	1021883a 	mov	r16,r2
   43258:	1823883a 	mov	r17,r3
   4325c:	004bde40 	call	4bde4 <__ledf2>
   43260:	bdc00044 	addi	r23,r23,1
   43264:	800d883a 	mov	r6,r16
   43268:	880f883a 	mov	r7,r17
   4326c:	0009883a 	mov	r4,zero
   43270:	014ffc34 	movhi	r5,16368
   43274:	103fcf0e 	bge	r2,zero,431b4 <__alt_mem_SHARED_MEMORY+0xfffc21b4>
   43278:	d8c01317 	ldw	r3,76(sp)
   4327c:	d8c00515 	stw	r3,20(sp)
   43280:	d9400917 	ldw	r5,36(sp)
   43284:	e009883a 	mov	r4,fp
   43288:	0045d140 	call	45d14 <_Bfree>
   4328c:	d9000517 	ldw	r4,20(sp)
   43290:	d9802317 	ldw	r6,140(sp)
   43294:	d9c02517 	ldw	r7,148(sp)
   43298:	b8000005 	stb	zero,0(r23)
   4329c:	20800044 	addi	r2,r4,1
   432a0:	30800015 	stw	r2,0(r6)
   432a4:	3802aa26 	beq	r7,zero,43d50 <_dtoa_r+0x1178>
   432a8:	3dc00015 	stw	r23,0(r7)
   432ac:	d8800717 	ldw	r2,28(sp)
   432b0:	003e7906 	br	42c98 <__alt_mem_SHARED_MEMORY+0xfffc1c98>
   432b4:	00800434 	movhi	r2,16
   432b8:	10bfffc4 	addi	r2,r2,-1
   432bc:	88a2703a 	and	r17,r17,r2
   432c0:	883e851e 	bne	r17,zero,42cd8 <__alt_mem_SHARED_MEMORY+0xfffc1cd8>
   432c4:	008001b4 	movhi	r2,6
   432c8:	10a2de04 	addi	r2,r2,-29832
   432cc:	003e8406 	br	42ce0 <__alt_mem_SHARED_MEMORY+0xfffc1ce0>
   432d0:	10c00204 	addi	r3,r2,8
   432d4:	003e8706 	br	42cf4 <__alt_mem_SHARED_MEMORY+0xfffc1cf4>
   432d8:	01400434 	movhi	r5,16
   432dc:	297fffc4 	addi	r5,r5,-1
   432e0:	994a703a 	and	r5,r19,r5
   432e4:	9009883a 	mov	r4,r18
   432e8:	843f0044 	addi	r16,r16,-1023
   432ec:	294ffc34 	orhi	r5,r5,16368
   432f0:	dd800217 	ldw	r22,8(sp)
   432f4:	d8001115 	stw	zero,68(sp)
   432f8:	003ea506 	br	42d90 <__alt_mem_SHARED_MEMORY+0xfffc1d90>
   432fc:	008001b4 	movhi	r2,6
   43300:	10a2d504 	addi	r2,r2,-29868
   43304:	003e6406 	br	42c98 <__alt_mem_SHARED_MEMORY+0xfffc1c98>
   43308:	e0001115 	stw	zero,68(fp)
   4330c:	000b883a 	mov	r5,zero
   43310:	e009883a 	mov	r4,fp
   43314:	0045c6c0 	call	45c6c <_Balloc>
   43318:	01bfffc4 	movi	r6,-1
   4331c:	01c00044 	movi	r7,1
   43320:	d8800715 	stw	r2,28(sp)
   43324:	d9800c15 	stw	r6,48(sp)
   43328:	e0801015 	stw	r2,64(fp)
   4332c:	d8000315 	stw	zero,12(sp)
   43330:	d9c00b15 	stw	r7,44(sp)
   43334:	d9800615 	stw	r6,24(sp)
   43338:	d8002215 	stw	zero,136(sp)
   4333c:	d8800117 	ldw	r2,4(sp)
   43340:	10008916 	blt	r2,zero,43568 <_dtoa_r+0x990>
   43344:	d9000517 	ldw	r4,20(sp)
   43348:	00c00384 	movi	r3,14
   4334c:	19008616 	blt	r3,r4,43568 <_dtoa_r+0x990>
   43350:	200490fa 	slli	r2,r4,3
   43354:	00c001b4 	movhi	r3,6
   43358:	d9802217 	ldw	r6,136(sp)
   4335c:	18e2fd04 	addi	r3,r3,-29708
   43360:	1885883a 	add	r2,r3,r2
   43364:	14000017 	ldw	r16,0(r2)
   43368:	14400117 	ldw	r17,4(r2)
   4336c:	30016316 	blt	r6,zero,438fc <_dtoa_r+0xd24>
   43370:	800d883a 	mov	r6,r16
   43374:	880f883a 	mov	r7,r17
   43378:	9009883a 	mov	r4,r18
   4337c:	980b883a 	mov	r5,r19
   43380:	004b2b00 	call	4b2b0 <__divdf3>
   43384:	180b883a 	mov	r5,r3
   43388:	1009883a 	mov	r4,r2
   4338c:	004d0400 	call	4d040 <__fixdfsi>
   43390:	1009883a 	mov	r4,r2
   43394:	102b883a 	mov	r21,r2
   43398:	004d0c00 	call	4d0c0 <__floatsidf>
   4339c:	800d883a 	mov	r6,r16
   433a0:	880f883a 	mov	r7,r17
   433a4:	1009883a 	mov	r4,r2
   433a8:	180b883a 	mov	r5,r3
   433ac:	004bed80 	call	4bed8 <__muldf3>
   433b0:	100d883a 	mov	r6,r2
   433b4:	180f883a 	mov	r7,r3
   433b8:	9009883a 	mov	r4,r18
   433bc:	980b883a 	mov	r5,r19
   433c0:	004c7440 	call	4c744 <__subdf3>
   433c4:	d9c00717 	ldw	r7,28(sp)
   433c8:	1009883a 	mov	r4,r2
   433cc:	a8800c04 	addi	r2,r21,48
   433d0:	38800005 	stb	r2,0(r7)
   433d4:	3dc00044 	addi	r23,r7,1
   433d8:	d9c00617 	ldw	r7,24(sp)
   433dc:	01800044 	movi	r6,1
   433e0:	180b883a 	mov	r5,r3
   433e4:	2005883a 	mov	r2,r4
   433e8:	39803826 	beq	r7,r6,434cc <_dtoa_r+0x8f4>
   433ec:	000d883a 	mov	r6,zero
   433f0:	01d00934 	movhi	r7,16420
   433f4:	004bed80 	call	4bed8 <__muldf3>
   433f8:	000d883a 	mov	r6,zero
   433fc:	000f883a 	mov	r7,zero
   43400:	1009883a 	mov	r4,r2
   43404:	180b883a 	mov	r5,r3
   43408:	1025883a 	mov	r18,r2
   4340c:	1827883a 	mov	r19,r3
   43410:	004bc800 	call	4bc80 <__eqdf2>
   43414:	103f9a26 	beq	r2,zero,43280 <__alt_mem_SHARED_MEMORY+0xfffc2280>
   43418:	d9c00617 	ldw	r7,24(sp)
   4341c:	d8c00717 	ldw	r3,28(sp)
   43420:	b829883a 	mov	r20,r23
   43424:	38bfffc4 	addi	r2,r7,-1
   43428:	18ad883a 	add	r22,r3,r2
   4342c:	00000a06 	br	43458 <_dtoa_r+0x880>
   43430:	004bed80 	call	4bed8 <__muldf3>
   43434:	000d883a 	mov	r6,zero
   43438:	000f883a 	mov	r7,zero
   4343c:	1009883a 	mov	r4,r2
   43440:	180b883a 	mov	r5,r3
   43444:	1025883a 	mov	r18,r2
   43448:	1827883a 	mov	r19,r3
   4344c:	b829883a 	mov	r20,r23
   43450:	004bc800 	call	4bc80 <__eqdf2>
   43454:	103f8a26 	beq	r2,zero,43280 <__alt_mem_SHARED_MEMORY+0xfffc2280>
   43458:	800d883a 	mov	r6,r16
   4345c:	880f883a 	mov	r7,r17
   43460:	9009883a 	mov	r4,r18
   43464:	980b883a 	mov	r5,r19
   43468:	004b2b00 	call	4b2b0 <__divdf3>
   4346c:	180b883a 	mov	r5,r3
   43470:	1009883a 	mov	r4,r2
   43474:	004d0400 	call	4d040 <__fixdfsi>
   43478:	1009883a 	mov	r4,r2
   4347c:	102b883a 	mov	r21,r2
   43480:	004d0c00 	call	4d0c0 <__floatsidf>
   43484:	800d883a 	mov	r6,r16
   43488:	880f883a 	mov	r7,r17
   4348c:	1009883a 	mov	r4,r2
   43490:	180b883a 	mov	r5,r3
   43494:	004bed80 	call	4bed8 <__muldf3>
   43498:	100d883a 	mov	r6,r2
   4349c:	180f883a 	mov	r7,r3
   434a0:	9009883a 	mov	r4,r18
   434a4:	980b883a 	mov	r5,r19
   434a8:	004c7440 	call	4c744 <__subdf3>
   434ac:	aa000c04 	addi	r8,r21,48
   434b0:	a2000005 	stb	r8,0(r20)
   434b4:	000d883a 	mov	r6,zero
   434b8:	01d00934 	movhi	r7,16420
   434bc:	1009883a 	mov	r4,r2
   434c0:	180b883a 	mov	r5,r3
   434c4:	a5c00044 	addi	r23,r20,1
   434c8:	b53fd91e 	bne	r22,r20,43430 <__alt_mem_SHARED_MEMORY+0xfffc2430>
   434cc:	100d883a 	mov	r6,r2
   434d0:	180f883a 	mov	r7,r3
   434d4:	1009883a 	mov	r4,r2
   434d8:	180b883a 	mov	r5,r3
   434dc:	004aa040 	call	4aa04 <__adddf3>
   434e0:	100d883a 	mov	r6,r2
   434e4:	180f883a 	mov	r7,r3
   434e8:	8009883a 	mov	r4,r16
   434ec:	880b883a 	mov	r5,r17
   434f0:	1027883a 	mov	r19,r2
   434f4:	1825883a 	mov	r18,r3
   434f8:	004bde40 	call	4bde4 <__ledf2>
   434fc:	10000816 	blt	r2,zero,43520 <_dtoa_r+0x948>
   43500:	980d883a 	mov	r6,r19
   43504:	900f883a 	mov	r7,r18
   43508:	8009883a 	mov	r4,r16
   4350c:	880b883a 	mov	r5,r17
   43510:	004bc800 	call	4bc80 <__eqdf2>
   43514:	103f5a1e 	bne	r2,zero,43280 <__alt_mem_SHARED_MEMORY+0xfffc2280>
   43518:	ad40004c 	andi	r21,r21,1
   4351c:	a83f5826 	beq	r21,zero,43280 <__alt_mem_SHARED_MEMORY+0xfffc2280>
   43520:	bd3fffc3 	ldbu	r20,-1(r23)
   43524:	b8bfffc4 	addi	r2,r23,-1
   43528:	1007883a 	mov	r3,r2
   4352c:	01400e44 	movi	r5,57
   43530:	d9800717 	ldw	r6,28(sp)
   43534:	00000506 	br	4354c <_dtoa_r+0x974>
   43538:	18ffffc4 	addi	r3,r3,-1
   4353c:	11824726 	beq	r2,r6,43e5c <_dtoa_r+0x1284>
   43540:	1d000003 	ldbu	r20,0(r3)
   43544:	102f883a 	mov	r23,r2
   43548:	10bfffc4 	addi	r2,r2,-1
   4354c:	a1003fcc 	andi	r4,r20,255
   43550:	2100201c 	xori	r4,r4,128
   43554:	213fe004 	addi	r4,r4,-128
   43558:	217ff726 	beq	r4,r5,43538 <__alt_mem_SHARED_MEMORY+0xfffc2538>
   4355c:	a2000044 	addi	r8,r20,1
   43560:	12000005 	stb	r8,0(r2)
   43564:	003f4606 	br	43280 <__alt_mem_SHARED_MEMORY+0xfffc2280>
   43568:	d9000b17 	ldw	r4,44(sp)
   4356c:	2000c826 	beq	r4,zero,43890 <_dtoa_r+0xcb8>
   43570:	d9800317 	ldw	r6,12(sp)
   43574:	00c00044 	movi	r3,1
   43578:	1980f90e 	bge	r3,r6,43960 <_dtoa_r+0xd88>
   4357c:	d8800617 	ldw	r2,24(sp)
   43580:	d8c00a17 	ldw	r3,40(sp)
   43584:	157fffc4 	addi	r21,r2,-1
   43588:	1d41f316 	blt	r3,r21,43d58 <_dtoa_r+0x1180>
   4358c:	1d6bc83a 	sub	r21,r3,r21
   43590:	d9c00617 	ldw	r7,24(sp)
   43594:	3802aa16 	blt	r7,zero,44040 <_dtoa_r+0x1468>
   43598:	dd000817 	ldw	r20,32(sp)
   4359c:	d8800617 	ldw	r2,24(sp)
   435a0:	d8c00817 	ldw	r3,32(sp)
   435a4:	01400044 	movi	r5,1
   435a8:	e009883a 	mov	r4,fp
   435ac:	1887883a 	add	r3,r3,r2
   435b0:	d8c00815 	stw	r3,32(sp)
   435b4:	b0ad883a 	add	r22,r22,r2
   435b8:	00460a00 	call	460a0 <__i2b>
   435bc:	1023883a 	mov	r17,r2
   435c0:	a0000826 	beq	r20,zero,435e4 <_dtoa_r+0xa0c>
   435c4:	0580070e 	bge	zero,r22,435e4 <_dtoa_r+0xa0c>
   435c8:	a005883a 	mov	r2,r20
   435cc:	b500b916 	blt	r22,r20,438b4 <_dtoa_r+0xcdc>
   435d0:	d9000817 	ldw	r4,32(sp)
   435d4:	a0a9c83a 	sub	r20,r20,r2
   435d8:	b0adc83a 	sub	r22,r22,r2
   435dc:	2089c83a 	sub	r4,r4,r2
   435e0:	d9000815 	stw	r4,32(sp)
   435e4:	d9800a17 	ldw	r6,40(sp)
   435e8:	0181810e 	bge	zero,r6,43bf0 <_dtoa_r+0x1018>
   435ec:	d9c00b17 	ldw	r7,44(sp)
   435f0:	3800b326 	beq	r7,zero,438c0 <_dtoa_r+0xce8>
   435f4:	a800b226 	beq	r21,zero,438c0 <_dtoa_r+0xce8>
   435f8:	880b883a 	mov	r5,r17
   435fc:	a80d883a 	mov	r6,r21
   43600:	e009883a 	mov	r4,fp
   43604:	00463680 	call	46368 <__pow5mult>
   43608:	d9800917 	ldw	r6,36(sp)
   4360c:	100b883a 	mov	r5,r2
   43610:	e009883a 	mov	r4,fp
   43614:	1023883a 	mov	r17,r2
   43618:	00460dc0 	call	460dc <__multiply>
   4361c:	1021883a 	mov	r16,r2
   43620:	d8800a17 	ldw	r2,40(sp)
   43624:	d9400917 	ldw	r5,36(sp)
   43628:	e009883a 	mov	r4,fp
   4362c:	1545c83a 	sub	r2,r2,r21
   43630:	d8800a15 	stw	r2,40(sp)
   43634:	0045d140 	call	45d14 <_Bfree>
   43638:	d8c00a17 	ldw	r3,40(sp)
   4363c:	18009f1e 	bne	r3,zero,438bc <_dtoa_r+0xce4>
   43640:	05c00044 	movi	r23,1
   43644:	e009883a 	mov	r4,fp
   43648:	b80b883a 	mov	r5,r23
   4364c:	00460a00 	call	460a0 <__i2b>
   43650:	d9000d17 	ldw	r4,52(sp)
   43654:	102b883a 	mov	r21,r2
   43658:	2000ce26 	beq	r4,zero,43994 <_dtoa_r+0xdbc>
   4365c:	200d883a 	mov	r6,r4
   43660:	100b883a 	mov	r5,r2
   43664:	e009883a 	mov	r4,fp
   43668:	00463680 	call	46368 <__pow5mult>
   4366c:	d9800317 	ldw	r6,12(sp)
   43670:	102b883a 	mov	r21,r2
   43674:	b981810e 	bge	r23,r6,43c7c <_dtoa_r+0x10a4>
   43678:	0027883a 	mov	r19,zero
   4367c:	a8800417 	ldw	r2,16(r21)
   43680:	05c00804 	movi	r23,32
   43684:	10800104 	addi	r2,r2,4
   43688:	1085883a 	add	r2,r2,r2
   4368c:	1085883a 	add	r2,r2,r2
   43690:	a885883a 	add	r2,r21,r2
   43694:	11000017 	ldw	r4,0(r2)
   43698:	0045f880 	call	45f88 <__hi0bits>
   4369c:	b885c83a 	sub	r2,r23,r2
   436a0:	1585883a 	add	r2,r2,r22
   436a4:	108007cc 	andi	r2,r2,31
   436a8:	1000b326 	beq	r2,zero,43978 <_dtoa_r+0xda0>
   436ac:	00c00804 	movi	r3,32
   436b0:	1887c83a 	sub	r3,r3,r2
   436b4:	01000104 	movi	r4,4
   436b8:	20c2cd0e 	bge	r4,r3,441f0 <_dtoa_r+0x1618>
   436bc:	00c00704 	movi	r3,28
   436c0:	1885c83a 	sub	r2,r3,r2
   436c4:	d8c00817 	ldw	r3,32(sp)
   436c8:	a0a9883a 	add	r20,r20,r2
   436cc:	b0ad883a 	add	r22,r22,r2
   436d0:	1887883a 	add	r3,r3,r2
   436d4:	d8c00815 	stw	r3,32(sp)
   436d8:	d9800817 	ldw	r6,32(sp)
   436dc:	0180040e 	bge	zero,r6,436f0 <_dtoa_r+0xb18>
   436e0:	800b883a 	mov	r5,r16
   436e4:	e009883a 	mov	r4,fp
   436e8:	00464a80 	call	464a8 <__lshift>
   436ec:	1021883a 	mov	r16,r2
   436f0:	0580050e 	bge	zero,r22,43708 <_dtoa_r+0xb30>
   436f4:	a80b883a 	mov	r5,r21
   436f8:	b00d883a 	mov	r6,r22
   436fc:	e009883a 	mov	r4,fp
   43700:	00464a80 	call	464a8 <__lshift>
   43704:	102b883a 	mov	r21,r2
   43708:	d9c00e17 	ldw	r7,56(sp)
   4370c:	3801211e 	bne	r7,zero,43b94 <_dtoa_r+0xfbc>
   43710:	d9800617 	ldw	r6,24(sp)
   43714:	0181380e 	bge	zero,r6,43bf8 <_dtoa_r+0x1020>
   43718:	d8c00b17 	ldw	r3,44(sp)
   4371c:	1800ab1e 	bne	r3,zero,439cc <_dtoa_r+0xdf4>
   43720:	dc800717 	ldw	r18,28(sp)
   43724:	dcc00617 	ldw	r19,24(sp)
   43728:	9029883a 	mov	r20,r18
   4372c:	00000206 	br	43738 <_dtoa_r+0xb60>
   43730:	0045d3c0 	call	45d3c <__multadd>
   43734:	1021883a 	mov	r16,r2
   43738:	a80b883a 	mov	r5,r21
   4373c:	8009883a 	mov	r4,r16
   43740:	00429b00 	call	429b0 <quorem>
   43744:	10800c04 	addi	r2,r2,48
   43748:	90800005 	stb	r2,0(r18)
   4374c:	94800044 	addi	r18,r18,1
   43750:	9507c83a 	sub	r3,r18,r20
   43754:	000f883a 	mov	r7,zero
   43758:	01800284 	movi	r6,10
   4375c:	800b883a 	mov	r5,r16
   43760:	e009883a 	mov	r4,fp
   43764:	1cfff216 	blt	r3,r19,43730 <__alt_mem_SHARED_MEMORY+0xfffc2730>
   43768:	1011883a 	mov	r8,r2
   4376c:	d8800617 	ldw	r2,24(sp)
   43770:	0082370e 	bge	zero,r2,44050 <_dtoa_r+0x1478>
   43774:	d9000717 	ldw	r4,28(sp)
   43778:	0025883a 	mov	r18,zero
   4377c:	20af883a 	add	r23,r4,r2
   43780:	01800044 	movi	r6,1
   43784:	800b883a 	mov	r5,r16
   43788:	e009883a 	mov	r4,fp
   4378c:	da001715 	stw	r8,92(sp)
   43790:	00464a80 	call	464a8 <__lshift>
   43794:	a80b883a 	mov	r5,r21
   43798:	1009883a 	mov	r4,r2
   4379c:	d8800915 	stw	r2,36(sp)
   437a0:	00465f00 	call	465f0 <__mcmp>
   437a4:	da001717 	ldw	r8,92(sp)
   437a8:	0081800e 	bge	zero,r2,43dac <_dtoa_r+0x11d4>
   437ac:	b93fffc3 	ldbu	r4,-1(r23)
   437b0:	b8bfffc4 	addi	r2,r23,-1
   437b4:	1007883a 	mov	r3,r2
   437b8:	01800e44 	movi	r6,57
   437bc:	d9c00717 	ldw	r7,28(sp)
   437c0:	00000506 	br	437d8 <_dtoa_r+0xc00>
   437c4:	18ffffc4 	addi	r3,r3,-1
   437c8:	11c12326 	beq	r2,r7,43c58 <_dtoa_r+0x1080>
   437cc:	19000003 	ldbu	r4,0(r3)
   437d0:	102f883a 	mov	r23,r2
   437d4:	10bfffc4 	addi	r2,r2,-1
   437d8:	21403fcc 	andi	r5,r4,255
   437dc:	2940201c 	xori	r5,r5,128
   437e0:	297fe004 	addi	r5,r5,-128
   437e4:	29bff726 	beq	r5,r6,437c4 <__alt_mem_SHARED_MEMORY+0xfffc27c4>
   437e8:	21000044 	addi	r4,r4,1
   437ec:	11000005 	stb	r4,0(r2)
   437f0:	a80b883a 	mov	r5,r21
   437f4:	e009883a 	mov	r4,fp
   437f8:	0045d140 	call	45d14 <_Bfree>
   437fc:	883ea026 	beq	r17,zero,43280 <__alt_mem_SHARED_MEMORY+0xfffc2280>
   43800:	90000426 	beq	r18,zero,43814 <_dtoa_r+0xc3c>
   43804:	94400326 	beq	r18,r17,43814 <_dtoa_r+0xc3c>
   43808:	900b883a 	mov	r5,r18
   4380c:	e009883a 	mov	r4,fp
   43810:	0045d140 	call	45d14 <_Bfree>
   43814:	880b883a 	mov	r5,r17
   43818:	e009883a 	mov	r4,fp
   4381c:	0045d140 	call	45d14 <_Bfree>
   43820:	003e9706 	br	43280 <__alt_mem_SHARED_MEMORY+0xfffc2280>
   43824:	01800044 	movi	r6,1
   43828:	d9800e15 	stw	r6,56(sp)
   4382c:	003d9606 	br	42e88 <__alt_mem_SHARED_MEMORY+0xfffc1e88>
   43830:	d8800817 	ldw	r2,32(sp)
   43834:	d8c00517 	ldw	r3,20(sp)
   43838:	d8000d15 	stw	zero,52(sp)
   4383c:	10c5c83a 	sub	r2,r2,r3
   43840:	00c9c83a 	sub	r4,zero,r3
   43844:	d8800815 	stw	r2,32(sp)
   43848:	d9000a15 	stw	r4,40(sp)
   4384c:	003d9706 	br	42eac <__alt_mem_SHARED_MEMORY+0xfffc1eac>
   43850:	05adc83a 	sub	r22,zero,r22
   43854:	dd800815 	stw	r22,32(sp)
   43858:	002d883a 	mov	r22,zero
   4385c:	003d8e06 	br	42e98 <__alt_mem_SHARED_MEMORY+0xfffc1e98>
   43860:	d9000517 	ldw	r4,20(sp)
   43864:	004d0c00 	call	4d0c0 <__floatsidf>
   43868:	100d883a 	mov	r6,r2
   4386c:	180f883a 	mov	r7,r3
   43870:	a009883a 	mov	r4,r20
   43874:	880b883a 	mov	r5,r17
   43878:	004bc800 	call	4bc80 <__eqdf2>
   4387c:	103d7126 	beq	r2,zero,42e44 <__alt_mem_SHARED_MEMORY+0xfffc1e44>
   43880:	d9c00517 	ldw	r7,20(sp)
   43884:	39ffffc4 	addi	r7,r7,-1
   43888:	d9c00515 	stw	r7,20(sp)
   4388c:	003d6d06 	br	42e44 <__alt_mem_SHARED_MEMORY+0xfffc1e44>
   43890:	dd400a17 	ldw	r21,40(sp)
   43894:	dd000817 	ldw	r20,32(sp)
   43898:	0023883a 	mov	r17,zero
   4389c:	003f4806 	br	435c0 <__alt_mem_SHARED_MEMORY+0xfffc25c0>
   438a0:	10e3c83a 	sub	r17,r2,r3
   438a4:	9448983a 	sll	r4,r18,r17
   438a8:	003d3206 	br	42d74 <__alt_mem_SHARED_MEMORY+0xfffc1d74>
   438ac:	d8000e15 	stw	zero,56(sp)
   438b0:	003d7506 	br	42e88 <__alt_mem_SHARED_MEMORY+0xfffc1e88>
   438b4:	b005883a 	mov	r2,r22
   438b8:	003f4506 	br	435d0 <__alt_mem_SHARED_MEMORY+0xfffc25d0>
   438bc:	dc000915 	stw	r16,36(sp)
   438c0:	d9800a17 	ldw	r6,40(sp)
   438c4:	d9400917 	ldw	r5,36(sp)
   438c8:	e009883a 	mov	r4,fp
   438cc:	00463680 	call	46368 <__pow5mult>
   438d0:	1021883a 	mov	r16,r2
   438d4:	003f5a06 	br	43640 <__alt_mem_SHARED_MEMORY+0xfffc2640>
   438d8:	01c00044 	movi	r7,1
   438dc:	d9c00b15 	stw	r7,44(sp)
   438e0:	d8802217 	ldw	r2,136(sp)
   438e4:	0081280e 	bge	zero,r2,43d88 <_dtoa_r+0x11b0>
   438e8:	100d883a 	mov	r6,r2
   438ec:	1021883a 	mov	r16,r2
   438f0:	d8800c15 	stw	r2,48(sp)
   438f4:	d8800615 	stw	r2,24(sp)
   438f8:	003d8806 	br	42f1c <__alt_mem_SHARED_MEMORY+0xfffc1f1c>
   438fc:	d8800617 	ldw	r2,24(sp)
   43900:	00be9b16 	blt	zero,r2,43370 <__alt_mem_SHARED_MEMORY+0xfffc2370>
   43904:	10010f1e 	bne	r2,zero,43d44 <_dtoa_r+0x116c>
   43908:	880b883a 	mov	r5,r17
   4390c:	000d883a 	mov	r6,zero
   43910:	01d00534 	movhi	r7,16404
   43914:	8009883a 	mov	r4,r16
   43918:	004bed80 	call	4bed8 <__muldf3>
   4391c:	900d883a 	mov	r6,r18
   43920:	980f883a 	mov	r7,r19
   43924:	1009883a 	mov	r4,r2
   43928:	180b883a 	mov	r5,r3
   4392c:	004bd080 	call	4bd08 <__gedf2>
   43930:	002b883a 	mov	r21,zero
   43934:	0023883a 	mov	r17,zero
   43938:	1000bf16 	blt	r2,zero,43c38 <_dtoa_r+0x1060>
   4393c:	d9802217 	ldw	r6,136(sp)
   43940:	ddc00717 	ldw	r23,28(sp)
   43944:	018c303a 	nor	r6,zero,r6
   43948:	d9800515 	stw	r6,20(sp)
   4394c:	a80b883a 	mov	r5,r21
   43950:	e009883a 	mov	r4,fp
   43954:	0045d140 	call	45d14 <_Bfree>
   43958:	883e4926 	beq	r17,zero,43280 <__alt_mem_SHARED_MEMORY+0xfffc2280>
   4395c:	003fad06 	br	43814 <__alt_mem_SHARED_MEMORY+0xfffc2814>
   43960:	d9c01117 	ldw	r7,68(sp)
   43964:	3801bc26 	beq	r7,zero,44058 <_dtoa_r+0x1480>
   43968:	10810cc4 	addi	r2,r2,1075
   4396c:	dd400a17 	ldw	r21,40(sp)
   43970:	dd000817 	ldw	r20,32(sp)
   43974:	003f0a06 	br	435a0 <__alt_mem_SHARED_MEMORY+0xfffc25a0>
   43978:	00800704 	movi	r2,28
   4397c:	d9000817 	ldw	r4,32(sp)
   43980:	a0a9883a 	add	r20,r20,r2
   43984:	b0ad883a 	add	r22,r22,r2
   43988:	2089883a 	add	r4,r4,r2
   4398c:	d9000815 	stw	r4,32(sp)
   43990:	003f5106 	br	436d8 <__alt_mem_SHARED_MEMORY+0xfffc26d8>
   43994:	d8c00317 	ldw	r3,12(sp)
   43998:	b8c1fc0e 	bge	r23,r3,4418c <_dtoa_r+0x15b4>
   4399c:	0027883a 	mov	r19,zero
   439a0:	b805883a 	mov	r2,r23
   439a4:	003f3e06 	br	436a0 <__alt_mem_SHARED_MEMORY+0xfffc26a0>
   439a8:	880b883a 	mov	r5,r17
   439ac:	e009883a 	mov	r4,fp
   439b0:	000f883a 	mov	r7,zero
   439b4:	01800284 	movi	r6,10
   439b8:	0045d3c0 	call	45d3c <__multadd>
   439bc:	d9000c17 	ldw	r4,48(sp)
   439c0:	1023883a 	mov	r17,r2
   439c4:	0102040e 	bge	zero,r4,441d8 <_dtoa_r+0x1600>
   439c8:	d9000615 	stw	r4,24(sp)
   439cc:	0500050e 	bge	zero,r20,439e4 <_dtoa_r+0xe0c>
   439d0:	880b883a 	mov	r5,r17
   439d4:	a00d883a 	mov	r6,r20
   439d8:	e009883a 	mov	r4,fp
   439dc:	00464a80 	call	464a8 <__lshift>
   439e0:	1023883a 	mov	r17,r2
   439e4:	9801241e 	bne	r19,zero,43e78 <_dtoa_r+0x12a0>
   439e8:	8829883a 	mov	r20,r17
   439ec:	d9000617 	ldw	r4,24(sp)
   439f0:	dcc00717 	ldw	r19,28(sp)
   439f4:	9480004c 	andi	r18,r18,1
   439f8:	20bfffc4 	addi	r2,r4,-1
   439fc:	9885883a 	add	r2,r19,r2
   43a00:	d8800415 	stw	r2,16(sp)
   43a04:	dc800615 	stw	r18,24(sp)
   43a08:	a80b883a 	mov	r5,r21
   43a0c:	8009883a 	mov	r4,r16
   43a10:	00429b00 	call	429b0 <quorem>
   43a14:	880b883a 	mov	r5,r17
   43a18:	8009883a 	mov	r4,r16
   43a1c:	102f883a 	mov	r23,r2
   43a20:	00465f00 	call	465f0 <__mcmp>
   43a24:	a80b883a 	mov	r5,r21
   43a28:	a00d883a 	mov	r6,r20
   43a2c:	e009883a 	mov	r4,fp
   43a30:	102d883a 	mov	r22,r2
   43a34:	00466500 	call	46650 <__mdiff>
   43a38:	1007883a 	mov	r3,r2
   43a3c:	10800317 	ldw	r2,12(r2)
   43a40:	bc800c04 	addi	r18,r23,48
   43a44:	180b883a 	mov	r5,r3
   43a48:	10004e1e 	bne	r2,zero,43b84 <_dtoa_r+0xfac>
   43a4c:	8009883a 	mov	r4,r16
   43a50:	d8c01615 	stw	r3,88(sp)
   43a54:	00465f00 	call	465f0 <__mcmp>
   43a58:	d8c01617 	ldw	r3,88(sp)
   43a5c:	e009883a 	mov	r4,fp
   43a60:	d8801615 	stw	r2,88(sp)
   43a64:	180b883a 	mov	r5,r3
   43a68:	0045d140 	call	45d14 <_Bfree>
   43a6c:	d8801617 	ldw	r2,88(sp)
   43a70:	1000041e 	bne	r2,zero,43a84 <_dtoa_r+0xeac>
   43a74:	d9800317 	ldw	r6,12(sp)
   43a78:	3000021e 	bne	r6,zero,43a84 <_dtoa_r+0xeac>
   43a7c:	d8c00617 	ldw	r3,24(sp)
   43a80:	18003726 	beq	r3,zero,43b60 <_dtoa_r+0xf88>
   43a84:	b0002016 	blt	r22,zero,43b08 <_dtoa_r+0xf30>
   43a88:	b000041e 	bne	r22,zero,43a9c <_dtoa_r+0xec4>
   43a8c:	d9000317 	ldw	r4,12(sp)
   43a90:	2000021e 	bne	r4,zero,43a9c <_dtoa_r+0xec4>
   43a94:	d8c00617 	ldw	r3,24(sp)
   43a98:	18001b26 	beq	r3,zero,43b08 <_dtoa_r+0xf30>
   43a9c:	00810716 	blt	zero,r2,43ebc <_dtoa_r+0x12e4>
   43aa0:	d8c00417 	ldw	r3,16(sp)
   43aa4:	9d800044 	addi	r22,r19,1
   43aa8:	9c800005 	stb	r18,0(r19)
   43aac:	b02f883a 	mov	r23,r22
   43ab0:	98c10626 	beq	r19,r3,43ecc <_dtoa_r+0x12f4>
   43ab4:	800b883a 	mov	r5,r16
   43ab8:	000f883a 	mov	r7,zero
   43abc:	01800284 	movi	r6,10
   43ac0:	e009883a 	mov	r4,fp
   43ac4:	0045d3c0 	call	45d3c <__multadd>
   43ac8:	1021883a 	mov	r16,r2
   43acc:	000f883a 	mov	r7,zero
   43ad0:	01800284 	movi	r6,10
   43ad4:	880b883a 	mov	r5,r17
   43ad8:	e009883a 	mov	r4,fp
   43adc:	8d002526 	beq	r17,r20,43b74 <_dtoa_r+0xf9c>
   43ae0:	0045d3c0 	call	45d3c <__multadd>
   43ae4:	a00b883a 	mov	r5,r20
   43ae8:	000f883a 	mov	r7,zero
   43aec:	01800284 	movi	r6,10
   43af0:	e009883a 	mov	r4,fp
   43af4:	1023883a 	mov	r17,r2
   43af8:	0045d3c0 	call	45d3c <__multadd>
   43afc:	1029883a 	mov	r20,r2
   43b00:	b027883a 	mov	r19,r22
   43b04:	003fc006 	br	43a08 <__alt_mem_SHARED_MEMORY+0xfffc2a08>
   43b08:	9011883a 	mov	r8,r18
   43b0c:	00800e0e 	bge	zero,r2,43b48 <_dtoa_r+0xf70>
   43b10:	800b883a 	mov	r5,r16
   43b14:	01800044 	movi	r6,1
   43b18:	e009883a 	mov	r4,fp
   43b1c:	da001715 	stw	r8,92(sp)
   43b20:	00464a80 	call	464a8 <__lshift>
   43b24:	a80b883a 	mov	r5,r21
   43b28:	1009883a 	mov	r4,r2
   43b2c:	1021883a 	mov	r16,r2
   43b30:	00465f00 	call	465f0 <__mcmp>
   43b34:	da001717 	ldw	r8,92(sp)
   43b38:	0081960e 	bge	zero,r2,44194 <_dtoa_r+0x15bc>
   43b3c:	00800e44 	movi	r2,57
   43b40:	40817026 	beq	r8,r2,44104 <_dtoa_r+0x152c>
   43b44:	ba000c44 	addi	r8,r23,49
   43b48:	8825883a 	mov	r18,r17
   43b4c:	9dc00044 	addi	r23,r19,1
   43b50:	9a000005 	stb	r8,0(r19)
   43b54:	a023883a 	mov	r17,r20
   43b58:	dc000915 	stw	r16,36(sp)
   43b5c:	003f2406 	br	437f0 <__alt_mem_SHARED_MEMORY+0xfffc27f0>
   43b60:	00800e44 	movi	r2,57
   43b64:	9011883a 	mov	r8,r18
   43b68:	90816626 	beq	r18,r2,44104 <_dtoa_r+0x152c>
   43b6c:	05bff516 	blt	zero,r22,43b44 <__alt_mem_SHARED_MEMORY+0xfffc2b44>
   43b70:	003ff506 	br	43b48 <__alt_mem_SHARED_MEMORY+0xfffc2b48>
   43b74:	0045d3c0 	call	45d3c <__multadd>
   43b78:	1023883a 	mov	r17,r2
   43b7c:	1029883a 	mov	r20,r2
   43b80:	003fdf06 	br	43b00 <__alt_mem_SHARED_MEMORY+0xfffc2b00>
   43b84:	e009883a 	mov	r4,fp
   43b88:	0045d140 	call	45d14 <_Bfree>
   43b8c:	00800044 	movi	r2,1
   43b90:	003fbc06 	br	43a84 <__alt_mem_SHARED_MEMORY+0xfffc2a84>
   43b94:	a80b883a 	mov	r5,r21
   43b98:	8009883a 	mov	r4,r16
   43b9c:	00465f00 	call	465f0 <__mcmp>
   43ba0:	103edb0e 	bge	r2,zero,43710 <__alt_mem_SHARED_MEMORY+0xfffc2710>
   43ba4:	800b883a 	mov	r5,r16
   43ba8:	000f883a 	mov	r7,zero
   43bac:	01800284 	movi	r6,10
   43bb0:	e009883a 	mov	r4,fp
   43bb4:	0045d3c0 	call	45d3c <__multadd>
   43bb8:	1021883a 	mov	r16,r2
   43bbc:	d8800517 	ldw	r2,20(sp)
   43bc0:	d8c00b17 	ldw	r3,44(sp)
   43bc4:	10bfffc4 	addi	r2,r2,-1
   43bc8:	d8800515 	stw	r2,20(sp)
   43bcc:	183f761e 	bne	r3,zero,439a8 <__alt_mem_SHARED_MEMORY+0xfffc29a8>
   43bd0:	d9000c17 	ldw	r4,48(sp)
   43bd4:	0101730e 	bge	zero,r4,441a4 <_dtoa_r+0x15cc>
   43bd8:	d9000615 	stw	r4,24(sp)
   43bdc:	003ed006 	br	43720 <__alt_mem_SHARED_MEMORY+0xfffc2720>
   43be0:	00800084 	movi	r2,2
   43be4:	3081861e 	bne	r6,r2,44200 <_dtoa_r+0x1628>
   43be8:	d8000b15 	stw	zero,44(sp)
   43bec:	003f3c06 	br	438e0 <__alt_mem_SHARED_MEMORY+0xfffc28e0>
   43bf0:	dc000917 	ldw	r16,36(sp)
   43bf4:	003e9206 	br	43640 <__alt_mem_SHARED_MEMORY+0xfffc2640>
   43bf8:	d9c00317 	ldw	r7,12(sp)
   43bfc:	00800084 	movi	r2,2
   43c00:	11fec50e 	bge	r2,r7,43718 <__alt_mem_SHARED_MEMORY+0xfffc2718>
   43c04:	d9000617 	ldw	r4,24(sp)
   43c08:	20013c1e 	bne	r4,zero,440fc <_dtoa_r+0x1524>
   43c0c:	a80b883a 	mov	r5,r21
   43c10:	000f883a 	mov	r7,zero
   43c14:	01800144 	movi	r6,5
   43c18:	e009883a 	mov	r4,fp
   43c1c:	0045d3c0 	call	45d3c <__multadd>
   43c20:	100b883a 	mov	r5,r2
   43c24:	8009883a 	mov	r4,r16
   43c28:	102b883a 	mov	r21,r2
   43c2c:	00465f00 	call	465f0 <__mcmp>
   43c30:	dc000915 	stw	r16,36(sp)
   43c34:	00bf410e 	bge	zero,r2,4393c <__alt_mem_SHARED_MEMORY+0xfffc293c>
   43c38:	d9c00717 	ldw	r7,28(sp)
   43c3c:	00800c44 	movi	r2,49
   43c40:	38800005 	stb	r2,0(r7)
   43c44:	d8800517 	ldw	r2,20(sp)
   43c48:	3dc00044 	addi	r23,r7,1
   43c4c:	10800044 	addi	r2,r2,1
   43c50:	d8800515 	stw	r2,20(sp)
   43c54:	003f3d06 	br	4394c <__alt_mem_SHARED_MEMORY+0xfffc294c>
   43c58:	d9800517 	ldw	r6,20(sp)
   43c5c:	d9c00717 	ldw	r7,28(sp)
   43c60:	00800c44 	movi	r2,49
   43c64:	31800044 	addi	r6,r6,1
   43c68:	d9800515 	stw	r6,20(sp)
   43c6c:	38800005 	stb	r2,0(r7)
   43c70:	003edf06 	br	437f0 <__alt_mem_SHARED_MEMORY+0xfffc27f0>
   43c74:	d8000b15 	stw	zero,44(sp)
   43c78:	003c9f06 	br	42ef8 <__alt_mem_SHARED_MEMORY+0xfffc1ef8>
   43c7c:	903e7e1e 	bne	r18,zero,43678 <__alt_mem_SHARED_MEMORY+0xfffc2678>
   43c80:	00800434 	movhi	r2,16
   43c84:	10bfffc4 	addi	r2,r2,-1
   43c88:	9884703a 	and	r2,r19,r2
   43c8c:	1000ea1e 	bne	r2,zero,44038 <_dtoa_r+0x1460>
   43c90:	9cdffc2c 	andhi	r19,r19,32752
   43c94:	9800e826 	beq	r19,zero,44038 <_dtoa_r+0x1460>
   43c98:	d9c00817 	ldw	r7,32(sp)
   43c9c:	b5800044 	addi	r22,r22,1
   43ca0:	04c00044 	movi	r19,1
   43ca4:	39c00044 	addi	r7,r7,1
   43ca8:	d9c00815 	stw	r7,32(sp)
   43cac:	d8800d17 	ldw	r2,52(sp)
   43cb0:	103e721e 	bne	r2,zero,4367c <__alt_mem_SHARED_MEMORY+0xfffc267c>
   43cb4:	00800044 	movi	r2,1
   43cb8:	003e7906 	br	436a0 <__alt_mem_SHARED_MEMORY+0xfffc26a0>
   43cbc:	8009883a 	mov	r4,r16
   43cc0:	004d0c00 	call	4d0c0 <__floatsidf>
   43cc4:	d9800f17 	ldw	r6,60(sp)
   43cc8:	d9c01017 	ldw	r7,64(sp)
   43ccc:	1009883a 	mov	r4,r2
   43cd0:	180b883a 	mov	r5,r3
   43cd4:	004bed80 	call	4bed8 <__muldf3>
   43cd8:	000d883a 	mov	r6,zero
   43cdc:	01d00734 	movhi	r7,16412
   43ce0:	1009883a 	mov	r4,r2
   43ce4:	180b883a 	mov	r5,r3
   43ce8:	004aa040 	call	4aa04 <__adddf3>
   43cec:	047f3034 	movhi	r17,64704
   43cf0:	1021883a 	mov	r16,r2
   43cf4:	1c63883a 	add	r17,r3,r17
   43cf8:	d9000f17 	ldw	r4,60(sp)
   43cfc:	d9401017 	ldw	r5,64(sp)
   43d00:	000d883a 	mov	r6,zero
   43d04:	01d00534 	movhi	r7,16404
   43d08:	004c7440 	call	4c744 <__subdf3>
   43d0c:	800d883a 	mov	r6,r16
   43d10:	880f883a 	mov	r7,r17
   43d14:	1009883a 	mov	r4,r2
   43d18:	180b883a 	mov	r5,r3
   43d1c:	102b883a 	mov	r21,r2
   43d20:	1829883a 	mov	r20,r3
   43d24:	004bd080 	call	4bd08 <__gedf2>
   43d28:	00806c16 	blt	zero,r2,43edc <_dtoa_r+0x1304>
   43d2c:	89e0003c 	xorhi	r7,r17,32768
   43d30:	800d883a 	mov	r6,r16
   43d34:	a809883a 	mov	r4,r21
   43d38:	a00b883a 	mov	r5,r20
   43d3c:	004bde40 	call	4bde4 <__ledf2>
   43d40:	103d7e0e 	bge	r2,zero,4333c <__alt_mem_SHARED_MEMORY+0xfffc233c>
   43d44:	002b883a 	mov	r21,zero
   43d48:	0023883a 	mov	r17,zero
   43d4c:	003efb06 	br	4393c <__alt_mem_SHARED_MEMORY+0xfffc293c>
   43d50:	d8800717 	ldw	r2,28(sp)
   43d54:	003bd006 	br	42c98 <__alt_mem_SHARED_MEMORY+0xfffc1c98>
   43d58:	d9000a17 	ldw	r4,40(sp)
   43d5c:	d9800d17 	ldw	r6,52(sp)
   43d60:	dd400a15 	stw	r21,40(sp)
   43d64:	a905c83a 	sub	r2,r21,r4
   43d68:	308d883a 	add	r6,r6,r2
   43d6c:	d9800d15 	stw	r6,52(sp)
   43d70:	002b883a 	mov	r21,zero
   43d74:	003e0606 	br	43590 <__alt_mem_SHARED_MEMORY+0xfffc2590>
   43d78:	9023883a 	mov	r17,r18
   43d7c:	9829883a 	mov	r20,r19
   43d80:	04000084 	movi	r16,2
   43d84:	003c9206 	br	42fd0 <__alt_mem_SHARED_MEMORY+0xfffc1fd0>
   43d88:	04000044 	movi	r16,1
   43d8c:	dc000c15 	stw	r16,48(sp)
   43d90:	dc000615 	stw	r16,24(sp)
   43d94:	dc002215 	stw	r16,136(sp)
   43d98:	e0001115 	stw	zero,68(fp)
   43d9c:	000b883a 	mov	r5,zero
   43da0:	003c6906 	br	42f48 <__alt_mem_SHARED_MEMORY+0xfffc1f48>
   43da4:	3021883a 	mov	r16,r6
   43da8:	003ffb06 	br	43d98 <__alt_mem_SHARED_MEMORY+0xfffc2d98>
   43dac:	1000021e 	bne	r2,zero,43db8 <_dtoa_r+0x11e0>
   43db0:	4200004c 	andi	r8,r8,1
   43db4:	403e7d1e 	bne	r8,zero,437ac <__alt_mem_SHARED_MEMORY+0xfffc27ac>
   43db8:	01000c04 	movi	r4,48
   43dbc:	00000106 	br	43dc4 <_dtoa_r+0x11ec>
   43dc0:	102f883a 	mov	r23,r2
   43dc4:	b8bfffc4 	addi	r2,r23,-1
   43dc8:	10c00007 	ldb	r3,0(r2)
   43dcc:	193ffc26 	beq	r3,r4,43dc0 <__alt_mem_SHARED_MEMORY+0xfffc2dc0>
   43dd0:	003e8706 	br	437f0 <__alt_mem_SHARED_MEMORY+0xfffc27f0>
   43dd4:	d8800517 	ldw	r2,20(sp)
   43dd8:	00a3c83a 	sub	r17,zero,r2
   43ddc:	8800a426 	beq	r17,zero,44070 <_dtoa_r+0x1498>
   43de0:	888003cc 	andi	r2,r17,15
   43de4:	100490fa 	slli	r2,r2,3
   43de8:	00c001b4 	movhi	r3,6
   43dec:	18e2fd04 	addi	r3,r3,-29708
   43df0:	1885883a 	add	r2,r3,r2
   43df4:	11800017 	ldw	r6,0(r2)
   43df8:	11c00117 	ldw	r7,4(r2)
   43dfc:	9009883a 	mov	r4,r18
   43e00:	980b883a 	mov	r5,r19
   43e04:	8823d13a 	srai	r17,r17,4
   43e08:	004bed80 	call	4bed8 <__muldf3>
   43e0c:	d8800f15 	stw	r2,60(sp)
   43e10:	d8c01015 	stw	r3,64(sp)
   43e14:	8800e826 	beq	r17,zero,441b8 <_dtoa_r+0x15e0>
   43e18:	050001b4 	movhi	r20,6
   43e1c:	a522f304 	addi	r20,r20,-29748
   43e20:	04000084 	movi	r16,2
   43e24:	8980004c 	andi	r6,r17,1
   43e28:	1009883a 	mov	r4,r2
   43e2c:	8823d07a 	srai	r17,r17,1
   43e30:	180b883a 	mov	r5,r3
   43e34:	30000426 	beq	r6,zero,43e48 <_dtoa_r+0x1270>
   43e38:	a1800017 	ldw	r6,0(r20)
   43e3c:	a1c00117 	ldw	r7,4(r20)
   43e40:	84000044 	addi	r16,r16,1
   43e44:	004bed80 	call	4bed8 <__muldf3>
   43e48:	a5000204 	addi	r20,r20,8
   43e4c:	883ff51e 	bne	r17,zero,43e24 <__alt_mem_SHARED_MEMORY+0xfffc2e24>
   43e50:	d8800f15 	stw	r2,60(sp)
   43e54:	d8c01015 	stw	r3,64(sp)
   43e58:	003c7606 	br	43034 <__alt_mem_SHARED_MEMORY+0xfffc2034>
   43e5c:	00c00c04 	movi	r3,48
   43e60:	10c00005 	stb	r3,0(r2)
   43e64:	d8c00517 	ldw	r3,20(sp)
   43e68:	bd3fffc3 	ldbu	r20,-1(r23)
   43e6c:	18c00044 	addi	r3,r3,1
   43e70:	d8c00515 	stw	r3,20(sp)
   43e74:	003db906 	br	4355c <__alt_mem_SHARED_MEMORY+0xfffc255c>
   43e78:	89400117 	ldw	r5,4(r17)
   43e7c:	e009883a 	mov	r4,fp
   43e80:	0045c6c0 	call	45c6c <_Balloc>
   43e84:	89800417 	ldw	r6,16(r17)
   43e88:	89400304 	addi	r5,r17,12
   43e8c:	11000304 	addi	r4,r2,12
   43e90:	31800084 	addi	r6,r6,2
   43e94:	318d883a 	add	r6,r6,r6
   43e98:	318d883a 	add	r6,r6,r6
   43e9c:	1027883a 	mov	r19,r2
   43ea0:	00459fc0 	call	459fc <memcpy>
   43ea4:	01800044 	movi	r6,1
   43ea8:	980b883a 	mov	r5,r19
   43eac:	e009883a 	mov	r4,fp
   43eb0:	00464a80 	call	464a8 <__lshift>
   43eb4:	1029883a 	mov	r20,r2
   43eb8:	003ecc06 	br	439ec <__alt_mem_SHARED_MEMORY+0xfffc29ec>
   43ebc:	00800e44 	movi	r2,57
   43ec0:	90809026 	beq	r18,r2,44104 <_dtoa_r+0x152c>
   43ec4:	92000044 	addi	r8,r18,1
   43ec8:	003f1f06 	br	43b48 <__alt_mem_SHARED_MEMORY+0xfffc2b48>
   43ecc:	9011883a 	mov	r8,r18
   43ed0:	8825883a 	mov	r18,r17
   43ed4:	a023883a 	mov	r17,r20
   43ed8:	003e2906 	br	43780 <__alt_mem_SHARED_MEMORY+0xfffc2780>
   43edc:	002b883a 	mov	r21,zero
   43ee0:	0023883a 	mov	r17,zero
   43ee4:	003f5406 	br	43c38 <__alt_mem_SHARED_MEMORY+0xfffc2c38>
   43ee8:	61bfffc4 	addi	r6,r12,-1
   43eec:	300490fa 	slli	r2,r6,3
   43ef0:	00c001b4 	movhi	r3,6
   43ef4:	18e2fd04 	addi	r3,r3,-29708
   43ef8:	1885883a 	add	r2,r3,r2
   43efc:	11000017 	ldw	r4,0(r2)
   43f00:	11400117 	ldw	r5,4(r2)
   43f04:	d8800717 	ldw	r2,28(sp)
   43f08:	880f883a 	mov	r7,r17
   43f0c:	d9801215 	stw	r6,72(sp)
   43f10:	800d883a 	mov	r6,r16
   43f14:	db001615 	stw	r12,88(sp)
   43f18:	15c00044 	addi	r23,r2,1
   43f1c:	004bed80 	call	4bed8 <__muldf3>
   43f20:	d9401017 	ldw	r5,64(sp)
   43f24:	d9000f17 	ldw	r4,60(sp)
   43f28:	d8c01515 	stw	r3,84(sp)
   43f2c:	d8801415 	stw	r2,80(sp)
   43f30:	004d0400 	call	4d040 <__fixdfsi>
   43f34:	1009883a 	mov	r4,r2
   43f38:	1021883a 	mov	r16,r2
   43f3c:	004d0c00 	call	4d0c0 <__floatsidf>
   43f40:	d9000f17 	ldw	r4,60(sp)
   43f44:	d9401017 	ldw	r5,64(sp)
   43f48:	100d883a 	mov	r6,r2
   43f4c:	180f883a 	mov	r7,r3
   43f50:	004c7440 	call	4c744 <__subdf3>
   43f54:	1829883a 	mov	r20,r3
   43f58:	d8c00717 	ldw	r3,28(sp)
   43f5c:	84000c04 	addi	r16,r16,48
   43f60:	1023883a 	mov	r17,r2
   43f64:	1c000005 	stb	r16,0(r3)
   43f68:	db001617 	ldw	r12,88(sp)
   43f6c:	00800044 	movi	r2,1
   43f70:	60802226 	beq	r12,r2,43ffc <_dtoa_r+0x1424>
   43f74:	d9c00717 	ldw	r7,28(sp)
   43f78:	8805883a 	mov	r2,r17
   43f7c:	b82b883a 	mov	r21,r23
   43f80:	3b19883a 	add	r12,r7,r12
   43f84:	6023883a 	mov	r17,r12
   43f88:	a007883a 	mov	r3,r20
   43f8c:	dc800f15 	stw	r18,60(sp)
   43f90:	000d883a 	mov	r6,zero
   43f94:	01d00934 	movhi	r7,16420
   43f98:	1009883a 	mov	r4,r2
   43f9c:	180b883a 	mov	r5,r3
   43fa0:	004bed80 	call	4bed8 <__muldf3>
   43fa4:	180b883a 	mov	r5,r3
   43fa8:	1009883a 	mov	r4,r2
   43fac:	1829883a 	mov	r20,r3
   43fb0:	1025883a 	mov	r18,r2
   43fb4:	004d0400 	call	4d040 <__fixdfsi>
   43fb8:	1009883a 	mov	r4,r2
   43fbc:	1021883a 	mov	r16,r2
   43fc0:	004d0c00 	call	4d0c0 <__floatsidf>
   43fc4:	100d883a 	mov	r6,r2
   43fc8:	180f883a 	mov	r7,r3
   43fcc:	9009883a 	mov	r4,r18
   43fd0:	a00b883a 	mov	r5,r20
   43fd4:	84000c04 	addi	r16,r16,48
   43fd8:	004c7440 	call	4c744 <__subdf3>
   43fdc:	ad400044 	addi	r21,r21,1
   43fe0:	ac3fffc5 	stb	r16,-1(r21)
   43fe4:	ac7fea1e 	bne	r21,r17,43f90 <__alt_mem_SHARED_MEMORY+0xfffc2f90>
   43fe8:	1023883a 	mov	r17,r2
   43fec:	d8801217 	ldw	r2,72(sp)
   43ff0:	dc800f17 	ldw	r18,60(sp)
   43ff4:	1829883a 	mov	r20,r3
   43ff8:	b8af883a 	add	r23,r23,r2
   43ffc:	d9001417 	ldw	r4,80(sp)
   44000:	d9401517 	ldw	r5,84(sp)
   44004:	000d883a 	mov	r6,zero
   44008:	01cff834 	movhi	r7,16352
   4400c:	004aa040 	call	4aa04 <__adddf3>
   44010:	880d883a 	mov	r6,r17
   44014:	a00f883a 	mov	r7,r20
   44018:	1009883a 	mov	r4,r2
   4401c:	180b883a 	mov	r5,r3
   44020:	004bde40 	call	4bde4 <__ledf2>
   44024:	10003e0e 	bge	r2,zero,44120 <_dtoa_r+0x1548>
   44028:	d9001317 	ldw	r4,76(sp)
   4402c:	bd3fffc3 	ldbu	r20,-1(r23)
   44030:	d9000515 	stw	r4,20(sp)
   44034:	003d3b06 	br	43524 <__alt_mem_SHARED_MEMORY+0xfffc2524>
   44038:	0027883a 	mov	r19,zero
   4403c:	003f1b06 	br	43cac <__alt_mem_SHARED_MEMORY+0xfffc2cac>
   44040:	d8800817 	ldw	r2,32(sp)
   44044:	11e9c83a 	sub	r20,r2,r7
   44048:	0005883a 	mov	r2,zero
   4404c:	003d5406 	br	435a0 <__alt_mem_SHARED_MEMORY+0xfffc25a0>
   44050:	00800044 	movi	r2,1
   44054:	003dc706 	br	43774 <__alt_mem_SHARED_MEMORY+0xfffc2774>
   44058:	d8c00217 	ldw	r3,8(sp)
   4405c:	00800d84 	movi	r2,54
   44060:	dd400a17 	ldw	r21,40(sp)
   44064:	10c5c83a 	sub	r2,r2,r3
   44068:	dd000817 	ldw	r20,32(sp)
   4406c:	003d4c06 	br	435a0 <__alt_mem_SHARED_MEMORY+0xfffc25a0>
   44070:	dc800f15 	stw	r18,60(sp)
   44074:	dcc01015 	stw	r19,64(sp)
   44078:	04000084 	movi	r16,2
   4407c:	003bed06 	br	43034 <__alt_mem_SHARED_MEMORY+0xfffc2034>
   44080:	d9000617 	ldw	r4,24(sp)
   44084:	203f0d26 	beq	r4,zero,43cbc <__alt_mem_SHARED_MEMORY+0xfffc2cbc>
   44088:	d9800c17 	ldw	r6,48(sp)
   4408c:	01bcab0e 	bge	zero,r6,4333c <__alt_mem_SHARED_MEMORY+0xfffc233c>
   44090:	d9401017 	ldw	r5,64(sp)
   44094:	d9000f17 	ldw	r4,60(sp)
   44098:	000d883a 	mov	r6,zero
   4409c:	01d00934 	movhi	r7,16420
   440a0:	004bed80 	call	4bed8 <__muldf3>
   440a4:	81000044 	addi	r4,r16,1
   440a8:	d8800f15 	stw	r2,60(sp)
   440ac:	d8c01015 	stw	r3,64(sp)
   440b0:	004d0c00 	call	4d0c0 <__floatsidf>
   440b4:	d9800f17 	ldw	r6,60(sp)
   440b8:	d9c01017 	ldw	r7,64(sp)
   440bc:	1009883a 	mov	r4,r2
   440c0:	180b883a 	mov	r5,r3
   440c4:	004bed80 	call	4bed8 <__muldf3>
   440c8:	01d00734 	movhi	r7,16412
   440cc:	000d883a 	mov	r6,zero
   440d0:	1009883a 	mov	r4,r2
   440d4:	180b883a 	mov	r5,r3
   440d8:	004aa040 	call	4aa04 <__adddf3>
   440dc:	d9c00517 	ldw	r7,20(sp)
   440e0:	047f3034 	movhi	r17,64704
   440e4:	1021883a 	mov	r16,r2
   440e8:	39ffffc4 	addi	r7,r7,-1
   440ec:	d9c01315 	stw	r7,76(sp)
   440f0:	1c63883a 	add	r17,r3,r17
   440f4:	db000c17 	ldw	r12,48(sp)
   440f8:	003bea06 	br	430a4 <__alt_mem_SHARED_MEMORY+0xfffc20a4>
   440fc:	dc000915 	stw	r16,36(sp)
   44100:	003e0e06 	br	4393c <__alt_mem_SHARED_MEMORY+0xfffc293c>
   44104:	01000e44 	movi	r4,57
   44108:	8825883a 	mov	r18,r17
   4410c:	9dc00044 	addi	r23,r19,1
   44110:	99000005 	stb	r4,0(r19)
   44114:	a023883a 	mov	r17,r20
   44118:	dc000915 	stw	r16,36(sp)
   4411c:	003da406 	br	437b0 <__alt_mem_SHARED_MEMORY+0xfffc27b0>
   44120:	d9801417 	ldw	r6,80(sp)
   44124:	d9c01517 	ldw	r7,84(sp)
   44128:	0009883a 	mov	r4,zero
   4412c:	014ff834 	movhi	r5,16352
   44130:	004c7440 	call	4c744 <__subdf3>
   44134:	880d883a 	mov	r6,r17
   44138:	a00f883a 	mov	r7,r20
   4413c:	1009883a 	mov	r4,r2
   44140:	180b883a 	mov	r5,r3
   44144:	004bd080 	call	4bd08 <__gedf2>
   44148:	00bc7c0e 	bge	zero,r2,4333c <__alt_mem_SHARED_MEMORY+0xfffc233c>
   4414c:	01000c04 	movi	r4,48
   44150:	00000106 	br	44158 <_dtoa_r+0x1580>
   44154:	102f883a 	mov	r23,r2
   44158:	b8bfffc4 	addi	r2,r23,-1
   4415c:	10c00007 	ldb	r3,0(r2)
   44160:	193ffc26 	beq	r3,r4,44154 <__alt_mem_SHARED_MEMORY+0xfffc3154>
   44164:	d9801317 	ldw	r6,76(sp)
   44168:	d9800515 	stw	r6,20(sp)
   4416c:	003c4406 	br	43280 <__alt_mem_SHARED_MEMORY+0xfffc2280>
   44170:	d9801317 	ldw	r6,76(sp)
   44174:	d9800515 	stw	r6,20(sp)
   44178:	003cea06 	br	43524 <__alt_mem_SHARED_MEMORY+0xfffc2524>
   4417c:	dd800f17 	ldw	r22,60(sp)
   44180:	dcc01017 	ldw	r19,64(sp)
   44184:	dc801217 	ldw	r18,72(sp)
   44188:	003c6c06 	br	4333c <__alt_mem_SHARED_MEMORY+0xfffc233c>
   4418c:	903e031e 	bne	r18,zero,4399c <__alt_mem_SHARED_MEMORY+0xfffc299c>
   44190:	003ebb06 	br	43c80 <__alt_mem_SHARED_MEMORY+0xfffc2c80>
   44194:	103e6c1e 	bne	r2,zero,43b48 <__alt_mem_SHARED_MEMORY+0xfffc2b48>
   44198:	4080004c 	andi	r2,r8,1
   4419c:	103e6a26 	beq	r2,zero,43b48 <__alt_mem_SHARED_MEMORY+0xfffc2b48>
   441a0:	003e6606 	br	43b3c <__alt_mem_SHARED_MEMORY+0xfffc2b3c>
   441a4:	d8c00317 	ldw	r3,12(sp)
   441a8:	00800084 	movi	r2,2
   441ac:	10c02916 	blt	r2,r3,44254 <_dtoa_r+0x167c>
   441b0:	d9000c17 	ldw	r4,48(sp)
   441b4:	003e8806 	br	43bd8 <__alt_mem_SHARED_MEMORY+0xfffc2bd8>
   441b8:	04000084 	movi	r16,2
   441bc:	003b9d06 	br	43034 <__alt_mem_SHARED_MEMORY+0xfffc2034>
   441c0:	d9001317 	ldw	r4,76(sp)
   441c4:	d9000515 	stw	r4,20(sp)
   441c8:	003cd606 	br	43524 <__alt_mem_SHARED_MEMORY+0xfffc2524>
   441cc:	d8801317 	ldw	r2,76(sp)
   441d0:	d8800515 	stw	r2,20(sp)
   441d4:	003c2a06 	br	43280 <__alt_mem_SHARED_MEMORY+0xfffc2280>
   441d8:	d9800317 	ldw	r6,12(sp)
   441dc:	00800084 	movi	r2,2
   441e0:	11801516 	blt	r2,r6,44238 <_dtoa_r+0x1660>
   441e4:	d9c00c17 	ldw	r7,48(sp)
   441e8:	d9c00615 	stw	r7,24(sp)
   441ec:	003df706 	br	439cc <__alt_mem_SHARED_MEMORY+0xfffc29cc>
   441f0:	193d3926 	beq	r3,r4,436d8 <__alt_mem_SHARED_MEMORY+0xfffc26d8>
   441f4:	00c00f04 	movi	r3,60
   441f8:	1885c83a 	sub	r2,r3,r2
   441fc:	003ddf06 	br	4397c <__alt_mem_SHARED_MEMORY+0xfffc297c>
   44200:	e009883a 	mov	r4,fp
   44204:	e0001115 	stw	zero,68(fp)
   44208:	000b883a 	mov	r5,zero
   4420c:	0045c6c0 	call	45c6c <_Balloc>
   44210:	d8800715 	stw	r2,28(sp)
   44214:	d8c00717 	ldw	r3,28(sp)
   44218:	00bfffc4 	movi	r2,-1
   4421c:	01000044 	movi	r4,1
   44220:	d8800c15 	stw	r2,48(sp)
   44224:	e0c01015 	stw	r3,64(fp)
   44228:	d9000b15 	stw	r4,44(sp)
   4422c:	d8800615 	stw	r2,24(sp)
   44230:	d8002215 	stw	zero,136(sp)
   44234:	003c4106 	br	4333c <__alt_mem_SHARED_MEMORY+0xfffc233c>
   44238:	d8c00c17 	ldw	r3,48(sp)
   4423c:	d8c00615 	stw	r3,24(sp)
   44240:	003e7006 	br	43c04 <__alt_mem_SHARED_MEMORY+0xfffc2c04>
   44244:	04400044 	movi	r17,1
   44248:	003b2006 	br	42ecc <__alt_mem_SHARED_MEMORY+0xfffc1ecc>
   4424c:	000b883a 	mov	r5,zero
   44250:	003b3d06 	br	42f48 <__alt_mem_SHARED_MEMORY+0xfffc1f48>
   44254:	d8800c17 	ldw	r2,48(sp)
   44258:	d8800615 	stw	r2,24(sp)
   4425c:	003e6906 	br	43c04 <__alt_mem_SHARED_MEMORY+0xfffc2c04>

00044260 <__sflush_r>:
   44260:	2880030b 	ldhu	r2,12(r5)
   44264:	defffb04 	addi	sp,sp,-20
   44268:	dcc00315 	stw	r19,12(sp)
   4426c:	dc400115 	stw	r17,4(sp)
   44270:	dfc00415 	stw	ra,16(sp)
   44274:	dc800215 	stw	r18,8(sp)
   44278:	dc000015 	stw	r16,0(sp)
   4427c:	10c0020c 	andi	r3,r2,8
   44280:	2823883a 	mov	r17,r5
   44284:	2027883a 	mov	r19,r4
   44288:	1800311e 	bne	r3,zero,44350 <__sflush_r+0xf0>
   4428c:	28c00117 	ldw	r3,4(r5)
   44290:	10820014 	ori	r2,r2,2048
   44294:	2880030d 	sth	r2,12(r5)
   44298:	00c04b0e 	bge	zero,r3,443c8 <__sflush_r+0x168>
   4429c:	8a000a17 	ldw	r8,40(r17)
   442a0:	40002326 	beq	r8,zero,44330 <__sflush_r+0xd0>
   442a4:	9c000017 	ldw	r16,0(r19)
   442a8:	10c4000c 	andi	r3,r2,4096
   442ac:	98000015 	stw	zero,0(r19)
   442b0:	18004826 	beq	r3,zero,443d4 <__sflush_r+0x174>
   442b4:	89801417 	ldw	r6,80(r17)
   442b8:	10c0010c 	andi	r3,r2,4
   442bc:	18000626 	beq	r3,zero,442d8 <__sflush_r+0x78>
   442c0:	88c00117 	ldw	r3,4(r17)
   442c4:	88800c17 	ldw	r2,48(r17)
   442c8:	30cdc83a 	sub	r6,r6,r3
   442cc:	10000226 	beq	r2,zero,442d8 <__sflush_r+0x78>
   442d0:	88800f17 	ldw	r2,60(r17)
   442d4:	308dc83a 	sub	r6,r6,r2
   442d8:	89400717 	ldw	r5,28(r17)
   442dc:	000f883a 	mov	r7,zero
   442e0:	9809883a 	mov	r4,r19
   442e4:	403ee83a 	callr	r8
   442e8:	00ffffc4 	movi	r3,-1
   442ec:	10c04426 	beq	r2,r3,44400 <__sflush_r+0x1a0>
   442f0:	88c0030b 	ldhu	r3,12(r17)
   442f4:	89000417 	ldw	r4,16(r17)
   442f8:	88000115 	stw	zero,4(r17)
   442fc:	197dffcc 	andi	r5,r3,63487
   44300:	8940030d 	sth	r5,12(r17)
   44304:	89000015 	stw	r4,0(r17)
   44308:	18c4000c 	andi	r3,r3,4096
   4430c:	18002c1e 	bne	r3,zero,443c0 <__sflush_r+0x160>
   44310:	89400c17 	ldw	r5,48(r17)
   44314:	9c000015 	stw	r16,0(r19)
   44318:	28000526 	beq	r5,zero,44330 <__sflush_r+0xd0>
   4431c:	88801004 	addi	r2,r17,64
   44320:	28800226 	beq	r5,r2,4432c <__sflush_r+0xcc>
   44324:	9809883a 	mov	r4,r19
   44328:	00449dc0 	call	449dc <_free_r>
   4432c:	88000c15 	stw	zero,48(r17)
   44330:	0005883a 	mov	r2,zero
   44334:	dfc00417 	ldw	ra,16(sp)
   44338:	dcc00317 	ldw	r19,12(sp)
   4433c:	dc800217 	ldw	r18,8(sp)
   44340:	dc400117 	ldw	r17,4(sp)
   44344:	dc000017 	ldw	r16,0(sp)
   44348:	dec00504 	addi	sp,sp,20
   4434c:	f800283a 	ret
   44350:	2c800417 	ldw	r18,16(r5)
   44354:	903ff626 	beq	r18,zero,44330 <__alt_mem_SHARED_MEMORY+0xfffc3330>
   44358:	2c000017 	ldw	r16,0(r5)
   4435c:	108000cc 	andi	r2,r2,3
   44360:	2c800015 	stw	r18,0(r5)
   44364:	84a1c83a 	sub	r16,r16,r18
   44368:	1000131e 	bne	r2,zero,443b8 <__sflush_r+0x158>
   4436c:	28800517 	ldw	r2,20(r5)
   44370:	88800215 	stw	r2,8(r17)
   44374:	04000316 	blt	zero,r16,44384 <__sflush_r+0x124>
   44378:	003fed06 	br	44330 <__alt_mem_SHARED_MEMORY+0xfffc3330>
   4437c:	90a5883a 	add	r18,r18,r2
   44380:	043feb0e 	bge	zero,r16,44330 <__alt_mem_SHARED_MEMORY+0xfffc3330>
   44384:	88800917 	ldw	r2,36(r17)
   44388:	89400717 	ldw	r5,28(r17)
   4438c:	800f883a 	mov	r7,r16
   44390:	900d883a 	mov	r6,r18
   44394:	9809883a 	mov	r4,r19
   44398:	103ee83a 	callr	r2
   4439c:	80a1c83a 	sub	r16,r16,r2
   443a0:	00bff616 	blt	zero,r2,4437c <__alt_mem_SHARED_MEMORY+0xfffc337c>
   443a4:	88c0030b 	ldhu	r3,12(r17)
   443a8:	00bfffc4 	movi	r2,-1
   443ac:	18c01014 	ori	r3,r3,64
   443b0:	88c0030d 	sth	r3,12(r17)
   443b4:	003fdf06 	br	44334 <__alt_mem_SHARED_MEMORY+0xfffc3334>
   443b8:	0005883a 	mov	r2,zero
   443bc:	003fec06 	br	44370 <__alt_mem_SHARED_MEMORY+0xfffc3370>
   443c0:	88801415 	stw	r2,80(r17)
   443c4:	003fd206 	br	44310 <__alt_mem_SHARED_MEMORY+0xfffc3310>
   443c8:	28c00f17 	ldw	r3,60(r5)
   443cc:	00ffb316 	blt	zero,r3,4429c <__alt_mem_SHARED_MEMORY+0xfffc329c>
   443d0:	003fd706 	br	44330 <__alt_mem_SHARED_MEMORY+0xfffc3330>
   443d4:	89400717 	ldw	r5,28(r17)
   443d8:	000d883a 	mov	r6,zero
   443dc:	01c00044 	movi	r7,1
   443e0:	9809883a 	mov	r4,r19
   443e4:	403ee83a 	callr	r8
   443e8:	100d883a 	mov	r6,r2
   443ec:	00bfffc4 	movi	r2,-1
   443f0:	30801426 	beq	r6,r2,44444 <__sflush_r+0x1e4>
   443f4:	8880030b 	ldhu	r2,12(r17)
   443f8:	8a000a17 	ldw	r8,40(r17)
   443fc:	003fae06 	br	442b8 <__alt_mem_SHARED_MEMORY+0xfffc32b8>
   44400:	98c00017 	ldw	r3,0(r19)
   44404:	183fba26 	beq	r3,zero,442f0 <__alt_mem_SHARED_MEMORY+0xfffc32f0>
   44408:	01000744 	movi	r4,29
   4440c:	19000626 	beq	r3,r4,44428 <__sflush_r+0x1c8>
   44410:	01000584 	movi	r4,22
   44414:	19000426 	beq	r3,r4,44428 <__sflush_r+0x1c8>
   44418:	88c0030b 	ldhu	r3,12(r17)
   4441c:	18c01014 	ori	r3,r3,64
   44420:	88c0030d 	sth	r3,12(r17)
   44424:	003fc306 	br	44334 <__alt_mem_SHARED_MEMORY+0xfffc3334>
   44428:	8880030b 	ldhu	r2,12(r17)
   4442c:	88c00417 	ldw	r3,16(r17)
   44430:	88000115 	stw	zero,4(r17)
   44434:	10bdffcc 	andi	r2,r2,63487
   44438:	8880030d 	sth	r2,12(r17)
   4443c:	88c00015 	stw	r3,0(r17)
   44440:	003fb306 	br	44310 <__alt_mem_SHARED_MEMORY+0xfffc3310>
   44444:	98800017 	ldw	r2,0(r19)
   44448:	103fea26 	beq	r2,zero,443f4 <__alt_mem_SHARED_MEMORY+0xfffc33f4>
   4444c:	00c00744 	movi	r3,29
   44450:	10c00226 	beq	r2,r3,4445c <__sflush_r+0x1fc>
   44454:	00c00584 	movi	r3,22
   44458:	10c0031e 	bne	r2,r3,44468 <__sflush_r+0x208>
   4445c:	9c000015 	stw	r16,0(r19)
   44460:	0005883a 	mov	r2,zero
   44464:	003fb306 	br	44334 <__alt_mem_SHARED_MEMORY+0xfffc3334>
   44468:	88c0030b 	ldhu	r3,12(r17)
   4446c:	3005883a 	mov	r2,r6
   44470:	18c01014 	ori	r3,r3,64
   44474:	88c0030d 	sth	r3,12(r17)
   44478:	003fae06 	br	44334 <__alt_mem_SHARED_MEMORY+0xfffc3334>

0004447c <_fflush_r>:
   4447c:	defffd04 	addi	sp,sp,-12
   44480:	dc000115 	stw	r16,4(sp)
   44484:	dfc00215 	stw	ra,8(sp)
   44488:	2021883a 	mov	r16,r4
   4448c:	20000226 	beq	r4,zero,44498 <_fflush_r+0x1c>
   44490:	20800e17 	ldw	r2,56(r4)
   44494:	10000c26 	beq	r2,zero,444c8 <_fflush_r+0x4c>
   44498:	2880030f 	ldh	r2,12(r5)
   4449c:	1000051e 	bne	r2,zero,444b4 <_fflush_r+0x38>
   444a0:	0005883a 	mov	r2,zero
   444a4:	dfc00217 	ldw	ra,8(sp)
   444a8:	dc000117 	ldw	r16,4(sp)
   444ac:	dec00304 	addi	sp,sp,12
   444b0:	f800283a 	ret
   444b4:	8009883a 	mov	r4,r16
   444b8:	dfc00217 	ldw	ra,8(sp)
   444bc:	dc000117 	ldw	r16,4(sp)
   444c0:	dec00304 	addi	sp,sp,12
   444c4:	00442601 	jmpi	44260 <__sflush_r>
   444c8:	d9400015 	stw	r5,0(sp)
   444cc:	00448680 	call	44868 <__sinit>
   444d0:	d9400017 	ldw	r5,0(sp)
   444d4:	003ff006 	br	44498 <__alt_mem_SHARED_MEMORY+0xfffc3498>

000444d8 <fflush>:
   444d8:	20000526 	beq	r4,zero,444f0 <fflush+0x18>
   444dc:	008001b4 	movhi	r2,6
   444e0:	10aa8204 	addi	r2,r2,-22008
   444e4:	200b883a 	mov	r5,r4
   444e8:	11000017 	ldw	r4,0(r2)
   444ec:	004447c1 	jmpi	4447c <_fflush_r>
   444f0:	008001b4 	movhi	r2,6
   444f4:	10aa8104 	addi	r2,r2,-22012
   444f8:	11000017 	ldw	r4,0(r2)
   444fc:	01400134 	movhi	r5,4
   44500:	29511f04 	addi	r5,r5,17532
   44504:	0044db01 	jmpi	44db0 <_fwalk_reent>

00044508 <__fp_unlock>:
   44508:	0005883a 	mov	r2,zero
   4450c:	f800283a 	ret

00044510 <_cleanup_r>:
   44510:	01400174 	movhi	r5,5
   44514:	29624904 	addi	r5,r5,-30428
   44518:	0044db01 	jmpi	44db0 <_fwalk_reent>

0004451c <__sinit.part.1>:
   4451c:	defff704 	addi	sp,sp,-36
   44520:	00c00134 	movhi	r3,4
   44524:	dfc00815 	stw	ra,32(sp)
   44528:	ddc00715 	stw	r23,28(sp)
   4452c:	dd800615 	stw	r22,24(sp)
   44530:	dd400515 	stw	r21,20(sp)
   44534:	dd000415 	stw	r20,16(sp)
   44538:	dcc00315 	stw	r19,12(sp)
   4453c:	dc800215 	stw	r18,8(sp)
   44540:	dc400115 	stw	r17,4(sp)
   44544:	dc000015 	stw	r16,0(sp)
   44548:	18d14404 	addi	r3,r3,17680
   4454c:	24000117 	ldw	r16,4(r4)
   44550:	20c00f15 	stw	r3,60(r4)
   44554:	2080bb04 	addi	r2,r4,748
   44558:	00c000c4 	movi	r3,3
   4455c:	20c0b915 	stw	r3,740(r4)
   44560:	2080ba15 	stw	r2,744(r4)
   44564:	2000b815 	stw	zero,736(r4)
   44568:	05c00204 	movi	r23,8
   4456c:	00800104 	movi	r2,4
   44570:	2025883a 	mov	r18,r4
   44574:	b80d883a 	mov	r6,r23
   44578:	81001704 	addi	r4,r16,92
   4457c:	000b883a 	mov	r5,zero
   44580:	80000015 	stw	zero,0(r16)
   44584:	80000115 	stw	zero,4(r16)
   44588:	80000215 	stw	zero,8(r16)
   4458c:	8080030d 	sth	r2,12(r16)
   44590:	80001915 	stw	zero,100(r16)
   44594:	8000038d 	sth	zero,14(r16)
   44598:	80000415 	stw	zero,16(r16)
   4459c:	80000515 	stw	zero,20(r16)
   445a0:	80000615 	stw	zero,24(r16)
   445a4:	0045b440 	call	45b44 <memset>
   445a8:	05800134 	movhi	r22,4
   445ac:	94400217 	ldw	r17,8(r18)
   445b0:	05400134 	movhi	r21,4
   445b4:	05000134 	movhi	r20,4
   445b8:	04c00134 	movhi	r19,4
   445bc:	b59b7b04 	addi	r22,r22,28140
   445c0:	ad5b9204 	addi	r21,r21,28232
   445c4:	a51bb104 	addi	r20,r20,28356
   445c8:	9cdbc804 	addi	r19,r19,28448
   445cc:	85800815 	stw	r22,32(r16)
   445d0:	85400915 	stw	r21,36(r16)
   445d4:	85000a15 	stw	r20,40(r16)
   445d8:	84c00b15 	stw	r19,44(r16)
   445dc:	84000715 	stw	r16,28(r16)
   445e0:	00800284 	movi	r2,10
   445e4:	8880030d 	sth	r2,12(r17)
   445e8:	00800044 	movi	r2,1
   445ec:	b80d883a 	mov	r6,r23
   445f0:	89001704 	addi	r4,r17,92
   445f4:	000b883a 	mov	r5,zero
   445f8:	88000015 	stw	zero,0(r17)
   445fc:	88000115 	stw	zero,4(r17)
   44600:	88000215 	stw	zero,8(r17)
   44604:	88001915 	stw	zero,100(r17)
   44608:	8880038d 	sth	r2,14(r17)
   4460c:	88000415 	stw	zero,16(r17)
   44610:	88000515 	stw	zero,20(r17)
   44614:	88000615 	stw	zero,24(r17)
   44618:	0045b440 	call	45b44 <memset>
   4461c:	94000317 	ldw	r16,12(r18)
   44620:	00800484 	movi	r2,18
   44624:	8c400715 	stw	r17,28(r17)
   44628:	8d800815 	stw	r22,32(r17)
   4462c:	8d400915 	stw	r21,36(r17)
   44630:	8d000a15 	stw	r20,40(r17)
   44634:	8cc00b15 	stw	r19,44(r17)
   44638:	8080030d 	sth	r2,12(r16)
   4463c:	00800084 	movi	r2,2
   44640:	80000015 	stw	zero,0(r16)
   44644:	80000115 	stw	zero,4(r16)
   44648:	80000215 	stw	zero,8(r16)
   4464c:	80001915 	stw	zero,100(r16)
   44650:	8080038d 	sth	r2,14(r16)
   44654:	80000415 	stw	zero,16(r16)
   44658:	80000515 	stw	zero,20(r16)
   4465c:	80000615 	stw	zero,24(r16)
   44660:	b80d883a 	mov	r6,r23
   44664:	000b883a 	mov	r5,zero
   44668:	81001704 	addi	r4,r16,92
   4466c:	0045b440 	call	45b44 <memset>
   44670:	00800044 	movi	r2,1
   44674:	84000715 	stw	r16,28(r16)
   44678:	85800815 	stw	r22,32(r16)
   4467c:	85400915 	stw	r21,36(r16)
   44680:	85000a15 	stw	r20,40(r16)
   44684:	84c00b15 	stw	r19,44(r16)
   44688:	90800e15 	stw	r2,56(r18)
   4468c:	dfc00817 	ldw	ra,32(sp)
   44690:	ddc00717 	ldw	r23,28(sp)
   44694:	dd800617 	ldw	r22,24(sp)
   44698:	dd400517 	ldw	r21,20(sp)
   4469c:	dd000417 	ldw	r20,16(sp)
   446a0:	dcc00317 	ldw	r19,12(sp)
   446a4:	dc800217 	ldw	r18,8(sp)
   446a8:	dc400117 	ldw	r17,4(sp)
   446ac:	dc000017 	ldw	r16,0(sp)
   446b0:	dec00904 	addi	sp,sp,36
   446b4:	f800283a 	ret

000446b8 <__fp_lock>:
   446b8:	0005883a 	mov	r2,zero
   446bc:	f800283a 	ret

000446c0 <__sfmoreglue>:
   446c0:	defffc04 	addi	sp,sp,-16
   446c4:	dc800215 	stw	r18,8(sp)
   446c8:	2825883a 	mov	r18,r5
   446cc:	dc000015 	stw	r16,0(sp)
   446d0:	01401a04 	movi	r5,104
   446d4:	2021883a 	mov	r16,r4
   446d8:	913fffc4 	addi	r4,r18,-1
   446dc:	dfc00315 	stw	ra,12(sp)
   446e0:	dc400115 	stw	r17,4(sp)
   446e4:	004a9dc0 	call	4a9dc <__mulsi3>
   446e8:	8009883a 	mov	r4,r16
   446ec:	11401d04 	addi	r5,r2,116
   446f0:	1023883a 	mov	r17,r2
   446f4:	004510c0 	call	4510c <_malloc_r>
   446f8:	1021883a 	mov	r16,r2
   446fc:	10000726 	beq	r2,zero,4471c <__sfmoreglue+0x5c>
   44700:	11000304 	addi	r4,r2,12
   44704:	10000015 	stw	zero,0(r2)
   44708:	14800115 	stw	r18,4(r2)
   4470c:	11000215 	stw	r4,8(r2)
   44710:	89801a04 	addi	r6,r17,104
   44714:	000b883a 	mov	r5,zero
   44718:	0045b440 	call	45b44 <memset>
   4471c:	8005883a 	mov	r2,r16
   44720:	dfc00317 	ldw	ra,12(sp)
   44724:	dc800217 	ldw	r18,8(sp)
   44728:	dc400117 	ldw	r17,4(sp)
   4472c:	dc000017 	ldw	r16,0(sp)
   44730:	dec00404 	addi	sp,sp,16
   44734:	f800283a 	ret

00044738 <__sfp>:
   44738:	defffb04 	addi	sp,sp,-20
   4473c:	dc000015 	stw	r16,0(sp)
   44740:	040001b4 	movhi	r16,6
   44744:	842a8104 	addi	r16,r16,-22012
   44748:	dcc00315 	stw	r19,12(sp)
   4474c:	2027883a 	mov	r19,r4
   44750:	81000017 	ldw	r4,0(r16)
   44754:	dfc00415 	stw	ra,16(sp)
   44758:	dc800215 	stw	r18,8(sp)
   4475c:	20800e17 	ldw	r2,56(r4)
   44760:	dc400115 	stw	r17,4(sp)
   44764:	1000021e 	bne	r2,zero,44770 <__sfp+0x38>
   44768:	004451c0 	call	4451c <__sinit.part.1>
   4476c:	81000017 	ldw	r4,0(r16)
   44770:	2480b804 	addi	r18,r4,736
   44774:	047fffc4 	movi	r17,-1
   44778:	91000117 	ldw	r4,4(r18)
   4477c:	94000217 	ldw	r16,8(r18)
   44780:	213fffc4 	addi	r4,r4,-1
   44784:	20000a16 	blt	r4,zero,447b0 <__sfp+0x78>
   44788:	8080030f 	ldh	r2,12(r16)
   4478c:	10000c26 	beq	r2,zero,447c0 <__sfp+0x88>
   44790:	80c01d04 	addi	r3,r16,116
   44794:	00000206 	br	447a0 <__sfp+0x68>
   44798:	18bfe60f 	ldh	r2,-104(r3)
   4479c:	10000826 	beq	r2,zero,447c0 <__sfp+0x88>
   447a0:	213fffc4 	addi	r4,r4,-1
   447a4:	1c3ffd04 	addi	r16,r3,-12
   447a8:	18c01a04 	addi	r3,r3,104
   447ac:	247ffa1e 	bne	r4,r17,44798 <__alt_mem_SHARED_MEMORY+0xfffc3798>
   447b0:	90800017 	ldw	r2,0(r18)
   447b4:	10001d26 	beq	r2,zero,4482c <__sfp+0xf4>
   447b8:	1025883a 	mov	r18,r2
   447bc:	003fee06 	br	44778 <__alt_mem_SHARED_MEMORY+0xfffc3778>
   447c0:	00bfffc4 	movi	r2,-1
   447c4:	8080038d 	sth	r2,14(r16)
   447c8:	00800044 	movi	r2,1
   447cc:	8080030d 	sth	r2,12(r16)
   447d0:	80001915 	stw	zero,100(r16)
   447d4:	80000015 	stw	zero,0(r16)
   447d8:	80000215 	stw	zero,8(r16)
   447dc:	80000115 	stw	zero,4(r16)
   447e0:	80000415 	stw	zero,16(r16)
   447e4:	80000515 	stw	zero,20(r16)
   447e8:	80000615 	stw	zero,24(r16)
   447ec:	01800204 	movi	r6,8
   447f0:	000b883a 	mov	r5,zero
   447f4:	81001704 	addi	r4,r16,92
   447f8:	0045b440 	call	45b44 <memset>
   447fc:	8005883a 	mov	r2,r16
   44800:	80000c15 	stw	zero,48(r16)
   44804:	80000d15 	stw	zero,52(r16)
   44808:	80001115 	stw	zero,68(r16)
   4480c:	80001215 	stw	zero,72(r16)
   44810:	dfc00417 	ldw	ra,16(sp)
   44814:	dcc00317 	ldw	r19,12(sp)
   44818:	dc800217 	ldw	r18,8(sp)
   4481c:	dc400117 	ldw	r17,4(sp)
   44820:	dc000017 	ldw	r16,0(sp)
   44824:	dec00504 	addi	sp,sp,20
   44828:	f800283a 	ret
   4482c:	01400104 	movi	r5,4
   44830:	9809883a 	mov	r4,r19
   44834:	00446c00 	call	446c0 <__sfmoreglue>
   44838:	90800015 	stw	r2,0(r18)
   4483c:	103fde1e 	bne	r2,zero,447b8 <__alt_mem_SHARED_MEMORY+0xfffc37b8>
   44840:	00800304 	movi	r2,12
   44844:	98800015 	stw	r2,0(r19)
   44848:	0005883a 	mov	r2,zero
   4484c:	003ff006 	br	44810 <__alt_mem_SHARED_MEMORY+0xfffc3810>

00044850 <_cleanup>:
   44850:	008001b4 	movhi	r2,6
   44854:	10aa8104 	addi	r2,r2,-22012
   44858:	11000017 	ldw	r4,0(r2)
   4485c:	01400174 	movhi	r5,5
   44860:	29624904 	addi	r5,r5,-30428
   44864:	0044db01 	jmpi	44db0 <_fwalk_reent>

00044868 <__sinit>:
   44868:	20800e17 	ldw	r2,56(r4)
   4486c:	10000126 	beq	r2,zero,44874 <__sinit+0xc>
   44870:	f800283a 	ret
   44874:	004451c1 	jmpi	4451c <__sinit.part.1>

00044878 <__sfp_lock_acquire>:
   44878:	f800283a 	ret

0004487c <__sfp_lock_release>:
   4487c:	f800283a 	ret

00044880 <__sinit_lock_acquire>:
   44880:	f800283a 	ret

00044884 <__sinit_lock_release>:
   44884:	f800283a 	ret

00044888 <__fp_lock_all>:
   44888:	008001b4 	movhi	r2,6
   4488c:	10aa8204 	addi	r2,r2,-22008
   44890:	11000017 	ldw	r4,0(r2)
   44894:	01400134 	movhi	r5,4
   44898:	2951ae04 	addi	r5,r5,18104
   4489c:	0044cec1 	jmpi	44cec <_fwalk>

000448a0 <__fp_unlock_all>:
   448a0:	008001b4 	movhi	r2,6
   448a4:	10aa8204 	addi	r2,r2,-22008
   448a8:	11000017 	ldw	r4,0(r2)
   448ac:	01400134 	movhi	r5,4
   448b0:	29514204 	addi	r5,r5,17672
   448b4:	0044cec1 	jmpi	44cec <_fwalk>

000448b8 <_malloc_trim_r>:
   448b8:	defffb04 	addi	sp,sp,-20
   448bc:	dcc00315 	stw	r19,12(sp)
   448c0:	04c001b4 	movhi	r19,6
   448c4:	dc800215 	stw	r18,8(sp)
   448c8:	dc400115 	stw	r17,4(sp)
   448cc:	dc000015 	stw	r16,0(sp)
   448d0:	dfc00415 	stw	ra,16(sp)
   448d4:	2821883a 	mov	r16,r5
   448d8:	9ce4f504 	addi	r19,r19,-27692
   448dc:	2025883a 	mov	r18,r4
   448e0:	004dd580 	call	4dd58 <__malloc_lock>
   448e4:	98800217 	ldw	r2,8(r19)
   448e8:	14400117 	ldw	r17,4(r2)
   448ec:	00bfff04 	movi	r2,-4
   448f0:	88a2703a 	and	r17,r17,r2
   448f4:	8c21c83a 	sub	r16,r17,r16
   448f8:	8403fbc4 	addi	r16,r16,4079
   448fc:	8020d33a 	srli	r16,r16,12
   44900:	0083ffc4 	movi	r2,4095
   44904:	843fffc4 	addi	r16,r16,-1
   44908:	8020933a 	slli	r16,r16,12
   4490c:	1400060e 	bge	r2,r16,44928 <_malloc_trim_r+0x70>
   44910:	000b883a 	mov	r5,zero
   44914:	9009883a 	mov	r4,r18
   44918:	0046d980 	call	46d98 <_sbrk_r>
   4491c:	98c00217 	ldw	r3,8(r19)
   44920:	1c47883a 	add	r3,r3,r17
   44924:	10c00a26 	beq	r2,r3,44950 <_malloc_trim_r+0x98>
   44928:	9009883a 	mov	r4,r18
   4492c:	004de780 	call	4de78 <__malloc_unlock>
   44930:	0005883a 	mov	r2,zero
   44934:	dfc00417 	ldw	ra,16(sp)
   44938:	dcc00317 	ldw	r19,12(sp)
   4493c:	dc800217 	ldw	r18,8(sp)
   44940:	dc400117 	ldw	r17,4(sp)
   44944:	dc000017 	ldw	r16,0(sp)
   44948:	dec00504 	addi	sp,sp,20
   4494c:	f800283a 	ret
   44950:	040bc83a 	sub	r5,zero,r16
   44954:	9009883a 	mov	r4,r18
   44958:	0046d980 	call	46d98 <_sbrk_r>
   4495c:	00ffffc4 	movi	r3,-1
   44960:	10c00d26 	beq	r2,r3,44998 <_malloc_trim_r+0xe0>
   44964:	00c001b4 	movhi	r3,6
   44968:	18f1be04 	addi	r3,r3,-14600
   4496c:	18800017 	ldw	r2,0(r3)
   44970:	99000217 	ldw	r4,8(r19)
   44974:	8c23c83a 	sub	r17,r17,r16
   44978:	8c400054 	ori	r17,r17,1
   4497c:	1421c83a 	sub	r16,r2,r16
   44980:	24400115 	stw	r17,4(r4)
   44984:	9009883a 	mov	r4,r18
   44988:	1c000015 	stw	r16,0(r3)
   4498c:	004de780 	call	4de78 <__malloc_unlock>
   44990:	00800044 	movi	r2,1
   44994:	003fe706 	br	44934 <__alt_mem_SHARED_MEMORY+0xfffc3934>
   44998:	000b883a 	mov	r5,zero
   4499c:	9009883a 	mov	r4,r18
   449a0:	0046d980 	call	46d98 <_sbrk_r>
   449a4:	99000217 	ldw	r4,8(r19)
   449a8:	014003c4 	movi	r5,15
   449ac:	1107c83a 	sub	r3,r2,r4
   449b0:	28ffdd0e 	bge	r5,r3,44928 <__alt_mem_SHARED_MEMORY+0xfffc3928>
   449b4:	014001b4 	movhi	r5,6
   449b8:	296a8404 	addi	r5,r5,-22000
   449bc:	29400017 	ldw	r5,0(r5)
   449c0:	18c00054 	ori	r3,r3,1
   449c4:	20c00115 	stw	r3,4(r4)
   449c8:	00c001b4 	movhi	r3,6
   449cc:	1145c83a 	sub	r2,r2,r5
   449d0:	18f1be04 	addi	r3,r3,-14600
   449d4:	18800015 	stw	r2,0(r3)
   449d8:	003fd306 	br	44928 <__alt_mem_SHARED_MEMORY+0xfffc3928>

000449dc <_free_r>:
   449dc:	28004126 	beq	r5,zero,44ae4 <_free_r+0x108>
   449e0:	defffd04 	addi	sp,sp,-12
   449e4:	dc400115 	stw	r17,4(sp)
   449e8:	dc000015 	stw	r16,0(sp)
   449ec:	2023883a 	mov	r17,r4
   449f0:	2821883a 	mov	r16,r5
   449f4:	dfc00215 	stw	ra,8(sp)
   449f8:	004dd580 	call	4dd58 <__malloc_lock>
   449fc:	81ffff17 	ldw	r7,-4(r16)
   44a00:	00bfff84 	movi	r2,-2
   44a04:	010001b4 	movhi	r4,6
   44a08:	81bffe04 	addi	r6,r16,-8
   44a0c:	3884703a 	and	r2,r7,r2
   44a10:	2124f504 	addi	r4,r4,-27692
   44a14:	308b883a 	add	r5,r6,r2
   44a18:	2a400117 	ldw	r9,4(r5)
   44a1c:	22000217 	ldw	r8,8(r4)
   44a20:	00ffff04 	movi	r3,-4
   44a24:	48c6703a 	and	r3,r9,r3
   44a28:	2a005726 	beq	r5,r8,44b88 <_free_r+0x1ac>
   44a2c:	28c00115 	stw	r3,4(r5)
   44a30:	39c0004c 	andi	r7,r7,1
   44a34:	3800091e 	bne	r7,zero,44a5c <_free_r+0x80>
   44a38:	823ffe17 	ldw	r8,-8(r16)
   44a3c:	22400204 	addi	r9,r4,8
   44a40:	320dc83a 	sub	r6,r6,r8
   44a44:	31c00217 	ldw	r7,8(r6)
   44a48:	1205883a 	add	r2,r2,r8
   44a4c:	3a406526 	beq	r7,r9,44be4 <_free_r+0x208>
   44a50:	32000317 	ldw	r8,12(r6)
   44a54:	3a000315 	stw	r8,12(r7)
   44a58:	41c00215 	stw	r7,8(r8)
   44a5c:	28cf883a 	add	r7,r5,r3
   44a60:	39c00117 	ldw	r7,4(r7)
   44a64:	39c0004c 	andi	r7,r7,1
   44a68:	38003a26 	beq	r7,zero,44b54 <_free_r+0x178>
   44a6c:	10c00054 	ori	r3,r2,1
   44a70:	30c00115 	stw	r3,4(r6)
   44a74:	3087883a 	add	r3,r6,r2
   44a78:	18800015 	stw	r2,0(r3)
   44a7c:	00c07fc4 	movi	r3,511
   44a80:	18801936 	bltu	r3,r2,44ae8 <_free_r+0x10c>
   44a84:	1004d0fa 	srli	r2,r2,3
   44a88:	01c00044 	movi	r7,1
   44a8c:	21400117 	ldw	r5,4(r4)
   44a90:	10c00044 	addi	r3,r2,1
   44a94:	18c7883a 	add	r3,r3,r3
   44a98:	1005d0ba 	srai	r2,r2,2
   44a9c:	18c7883a 	add	r3,r3,r3
   44aa0:	18c7883a 	add	r3,r3,r3
   44aa4:	1907883a 	add	r3,r3,r4
   44aa8:	3884983a 	sll	r2,r7,r2
   44aac:	19c00017 	ldw	r7,0(r3)
   44ab0:	1a3ffe04 	addi	r8,r3,-8
   44ab4:	1144b03a 	or	r2,r2,r5
   44ab8:	32000315 	stw	r8,12(r6)
   44abc:	31c00215 	stw	r7,8(r6)
   44ac0:	20800115 	stw	r2,4(r4)
   44ac4:	19800015 	stw	r6,0(r3)
   44ac8:	39800315 	stw	r6,12(r7)
   44acc:	8809883a 	mov	r4,r17
   44ad0:	dfc00217 	ldw	ra,8(sp)
   44ad4:	dc400117 	ldw	r17,4(sp)
   44ad8:	dc000017 	ldw	r16,0(sp)
   44adc:	dec00304 	addi	sp,sp,12
   44ae0:	004de781 	jmpi	4de78 <__malloc_unlock>
   44ae4:	f800283a 	ret
   44ae8:	100ad27a 	srli	r5,r2,9
   44aec:	00c00104 	movi	r3,4
   44af0:	19404a36 	bltu	r3,r5,44c1c <_free_r+0x240>
   44af4:	100ad1ba 	srli	r5,r2,6
   44af8:	28c00e44 	addi	r3,r5,57
   44afc:	18c7883a 	add	r3,r3,r3
   44b00:	29400e04 	addi	r5,r5,56
   44b04:	18c7883a 	add	r3,r3,r3
   44b08:	18c7883a 	add	r3,r3,r3
   44b0c:	1909883a 	add	r4,r3,r4
   44b10:	20c00017 	ldw	r3,0(r4)
   44b14:	01c001b4 	movhi	r7,6
   44b18:	213ffe04 	addi	r4,r4,-8
   44b1c:	39e4f504 	addi	r7,r7,-27692
   44b20:	20c04426 	beq	r4,r3,44c34 <_free_r+0x258>
   44b24:	01ffff04 	movi	r7,-4
   44b28:	19400117 	ldw	r5,4(r3)
   44b2c:	29ca703a 	and	r5,r5,r7
   44b30:	1140022e 	bgeu	r2,r5,44b3c <_free_r+0x160>
   44b34:	18c00217 	ldw	r3,8(r3)
   44b38:	20fffb1e 	bne	r4,r3,44b28 <__alt_mem_SHARED_MEMORY+0xfffc3b28>
   44b3c:	19000317 	ldw	r4,12(r3)
   44b40:	31000315 	stw	r4,12(r6)
   44b44:	30c00215 	stw	r3,8(r6)
   44b48:	21800215 	stw	r6,8(r4)
   44b4c:	19800315 	stw	r6,12(r3)
   44b50:	003fde06 	br	44acc <__alt_mem_SHARED_MEMORY+0xfffc3acc>
   44b54:	29c00217 	ldw	r7,8(r5)
   44b58:	10c5883a 	add	r2,r2,r3
   44b5c:	00c001b4 	movhi	r3,6
   44b60:	18e4f704 	addi	r3,r3,-27684
   44b64:	38c03b26 	beq	r7,r3,44c54 <_free_r+0x278>
   44b68:	2a000317 	ldw	r8,12(r5)
   44b6c:	11400054 	ori	r5,r2,1
   44b70:	3087883a 	add	r3,r6,r2
   44b74:	3a000315 	stw	r8,12(r7)
   44b78:	41c00215 	stw	r7,8(r8)
   44b7c:	31400115 	stw	r5,4(r6)
   44b80:	18800015 	stw	r2,0(r3)
   44b84:	003fbd06 	br	44a7c <__alt_mem_SHARED_MEMORY+0xfffc3a7c>
   44b88:	39c0004c 	andi	r7,r7,1
   44b8c:	10c5883a 	add	r2,r2,r3
   44b90:	3800071e 	bne	r7,zero,44bb0 <_free_r+0x1d4>
   44b94:	81fffe17 	ldw	r7,-8(r16)
   44b98:	31cdc83a 	sub	r6,r6,r7
   44b9c:	30c00317 	ldw	r3,12(r6)
   44ba0:	31400217 	ldw	r5,8(r6)
   44ba4:	11c5883a 	add	r2,r2,r7
   44ba8:	28c00315 	stw	r3,12(r5)
   44bac:	19400215 	stw	r5,8(r3)
   44bb0:	10c00054 	ori	r3,r2,1
   44bb4:	30c00115 	stw	r3,4(r6)
   44bb8:	00c001b4 	movhi	r3,6
   44bbc:	18ea8504 	addi	r3,r3,-21996
   44bc0:	18c00017 	ldw	r3,0(r3)
   44bc4:	21800215 	stw	r6,8(r4)
   44bc8:	10ffc036 	bltu	r2,r3,44acc <__alt_mem_SHARED_MEMORY+0xfffc3acc>
   44bcc:	008001b4 	movhi	r2,6
   44bd0:	10b19c04 	addi	r2,r2,-14736
   44bd4:	11400017 	ldw	r5,0(r2)
   44bd8:	8809883a 	mov	r4,r17
   44bdc:	00448b80 	call	448b8 <_malloc_trim_r>
   44be0:	003fba06 	br	44acc <__alt_mem_SHARED_MEMORY+0xfffc3acc>
   44be4:	28c9883a 	add	r4,r5,r3
   44be8:	21000117 	ldw	r4,4(r4)
   44bec:	2100004c 	andi	r4,r4,1
   44bf0:	2000391e 	bne	r4,zero,44cd8 <_free_r+0x2fc>
   44bf4:	29c00217 	ldw	r7,8(r5)
   44bf8:	29000317 	ldw	r4,12(r5)
   44bfc:	1885883a 	add	r2,r3,r2
   44c00:	10c00054 	ori	r3,r2,1
   44c04:	39000315 	stw	r4,12(r7)
   44c08:	21c00215 	stw	r7,8(r4)
   44c0c:	30c00115 	stw	r3,4(r6)
   44c10:	308d883a 	add	r6,r6,r2
   44c14:	30800015 	stw	r2,0(r6)
   44c18:	003fac06 	br	44acc <__alt_mem_SHARED_MEMORY+0xfffc3acc>
   44c1c:	00c00504 	movi	r3,20
   44c20:	19401536 	bltu	r3,r5,44c78 <_free_r+0x29c>
   44c24:	28c01704 	addi	r3,r5,92
   44c28:	18c7883a 	add	r3,r3,r3
   44c2c:	294016c4 	addi	r5,r5,91
   44c30:	003fb406 	br	44b04 <__alt_mem_SHARED_MEMORY+0xfffc3b04>
   44c34:	280bd0ba 	srai	r5,r5,2
   44c38:	00c00044 	movi	r3,1
   44c3c:	38800117 	ldw	r2,4(r7)
   44c40:	194a983a 	sll	r5,r3,r5
   44c44:	2007883a 	mov	r3,r4
   44c48:	2884b03a 	or	r2,r5,r2
   44c4c:	38800115 	stw	r2,4(r7)
   44c50:	003fbb06 	br	44b40 <__alt_mem_SHARED_MEMORY+0xfffc3b40>
   44c54:	21800515 	stw	r6,20(r4)
   44c58:	21800415 	stw	r6,16(r4)
   44c5c:	10c00054 	ori	r3,r2,1
   44c60:	31c00315 	stw	r7,12(r6)
   44c64:	31c00215 	stw	r7,8(r6)
   44c68:	30c00115 	stw	r3,4(r6)
   44c6c:	308d883a 	add	r6,r6,r2
   44c70:	30800015 	stw	r2,0(r6)
   44c74:	003f9506 	br	44acc <__alt_mem_SHARED_MEMORY+0xfffc3acc>
   44c78:	00c01504 	movi	r3,84
   44c7c:	19400536 	bltu	r3,r5,44c94 <_free_r+0x2b8>
   44c80:	100ad33a 	srli	r5,r2,12
   44c84:	28c01bc4 	addi	r3,r5,111
   44c88:	18c7883a 	add	r3,r3,r3
   44c8c:	29401b84 	addi	r5,r5,110
   44c90:	003f9c06 	br	44b04 <__alt_mem_SHARED_MEMORY+0xfffc3b04>
   44c94:	00c05504 	movi	r3,340
   44c98:	19400536 	bltu	r3,r5,44cb0 <_free_r+0x2d4>
   44c9c:	100ad3fa 	srli	r5,r2,15
   44ca0:	28c01e04 	addi	r3,r5,120
   44ca4:	18c7883a 	add	r3,r3,r3
   44ca8:	29401dc4 	addi	r5,r5,119
   44cac:	003f9506 	br	44b04 <__alt_mem_SHARED_MEMORY+0xfffc3b04>
   44cb0:	00c15504 	movi	r3,1364
   44cb4:	19400536 	bltu	r3,r5,44ccc <_free_r+0x2f0>
   44cb8:	100ad4ba 	srli	r5,r2,18
   44cbc:	28c01f44 	addi	r3,r5,125
   44cc0:	18c7883a 	add	r3,r3,r3
   44cc4:	29401f04 	addi	r5,r5,124
   44cc8:	003f8e06 	br	44b04 <__alt_mem_SHARED_MEMORY+0xfffc3b04>
   44ccc:	00c03f84 	movi	r3,254
   44cd0:	01401f84 	movi	r5,126
   44cd4:	003f8b06 	br	44b04 <__alt_mem_SHARED_MEMORY+0xfffc3b04>
   44cd8:	10c00054 	ori	r3,r2,1
   44cdc:	30c00115 	stw	r3,4(r6)
   44ce0:	308d883a 	add	r6,r6,r2
   44ce4:	30800015 	stw	r2,0(r6)
   44ce8:	003f7806 	br	44acc <__alt_mem_SHARED_MEMORY+0xfffc3acc>

00044cec <_fwalk>:
   44cec:	defff704 	addi	sp,sp,-36
   44cf0:	dd000415 	stw	r20,16(sp)
   44cf4:	dfc00815 	stw	ra,32(sp)
   44cf8:	ddc00715 	stw	r23,28(sp)
   44cfc:	dd800615 	stw	r22,24(sp)
   44d00:	dd400515 	stw	r21,20(sp)
   44d04:	dcc00315 	stw	r19,12(sp)
   44d08:	dc800215 	stw	r18,8(sp)
   44d0c:	dc400115 	stw	r17,4(sp)
   44d10:	dc000015 	stw	r16,0(sp)
   44d14:	2500b804 	addi	r20,r4,736
   44d18:	a0002326 	beq	r20,zero,44da8 <_fwalk+0xbc>
   44d1c:	282b883a 	mov	r21,r5
   44d20:	002f883a 	mov	r23,zero
   44d24:	05800044 	movi	r22,1
   44d28:	04ffffc4 	movi	r19,-1
   44d2c:	a4400117 	ldw	r17,4(r20)
   44d30:	a4800217 	ldw	r18,8(r20)
   44d34:	8c7fffc4 	addi	r17,r17,-1
   44d38:	88000d16 	blt	r17,zero,44d70 <_fwalk+0x84>
   44d3c:	94000304 	addi	r16,r18,12
   44d40:	94800384 	addi	r18,r18,14
   44d44:	8080000b 	ldhu	r2,0(r16)
   44d48:	8c7fffc4 	addi	r17,r17,-1
   44d4c:	813ffd04 	addi	r4,r16,-12
   44d50:	b080042e 	bgeu	r22,r2,44d64 <_fwalk+0x78>
   44d54:	9080000f 	ldh	r2,0(r18)
   44d58:	14c00226 	beq	r2,r19,44d64 <_fwalk+0x78>
   44d5c:	a83ee83a 	callr	r21
   44d60:	b8aeb03a 	or	r23,r23,r2
   44d64:	84001a04 	addi	r16,r16,104
   44d68:	94801a04 	addi	r18,r18,104
   44d6c:	8cfff51e 	bne	r17,r19,44d44 <__alt_mem_SHARED_MEMORY+0xfffc3d44>
   44d70:	a5000017 	ldw	r20,0(r20)
   44d74:	a03fed1e 	bne	r20,zero,44d2c <__alt_mem_SHARED_MEMORY+0xfffc3d2c>
   44d78:	b805883a 	mov	r2,r23
   44d7c:	dfc00817 	ldw	ra,32(sp)
   44d80:	ddc00717 	ldw	r23,28(sp)
   44d84:	dd800617 	ldw	r22,24(sp)
   44d88:	dd400517 	ldw	r21,20(sp)
   44d8c:	dd000417 	ldw	r20,16(sp)
   44d90:	dcc00317 	ldw	r19,12(sp)
   44d94:	dc800217 	ldw	r18,8(sp)
   44d98:	dc400117 	ldw	r17,4(sp)
   44d9c:	dc000017 	ldw	r16,0(sp)
   44da0:	dec00904 	addi	sp,sp,36
   44da4:	f800283a 	ret
   44da8:	002f883a 	mov	r23,zero
   44dac:	003ff206 	br	44d78 <__alt_mem_SHARED_MEMORY+0xfffc3d78>

00044db0 <_fwalk_reent>:
   44db0:	defff704 	addi	sp,sp,-36
   44db4:	dd000415 	stw	r20,16(sp)
   44db8:	dfc00815 	stw	ra,32(sp)
   44dbc:	ddc00715 	stw	r23,28(sp)
   44dc0:	dd800615 	stw	r22,24(sp)
   44dc4:	dd400515 	stw	r21,20(sp)
   44dc8:	dcc00315 	stw	r19,12(sp)
   44dcc:	dc800215 	stw	r18,8(sp)
   44dd0:	dc400115 	stw	r17,4(sp)
   44dd4:	dc000015 	stw	r16,0(sp)
   44dd8:	2500b804 	addi	r20,r4,736
   44ddc:	a0002326 	beq	r20,zero,44e6c <_fwalk_reent+0xbc>
   44de0:	282b883a 	mov	r21,r5
   44de4:	2027883a 	mov	r19,r4
   44de8:	002f883a 	mov	r23,zero
   44dec:	05800044 	movi	r22,1
   44df0:	04bfffc4 	movi	r18,-1
   44df4:	a4400117 	ldw	r17,4(r20)
   44df8:	a4000217 	ldw	r16,8(r20)
   44dfc:	8c7fffc4 	addi	r17,r17,-1
   44e00:	88000c16 	blt	r17,zero,44e34 <_fwalk_reent+0x84>
   44e04:	84000304 	addi	r16,r16,12
   44e08:	8080000b 	ldhu	r2,0(r16)
   44e0c:	8c7fffc4 	addi	r17,r17,-1
   44e10:	817ffd04 	addi	r5,r16,-12
   44e14:	b080052e 	bgeu	r22,r2,44e2c <_fwalk_reent+0x7c>
   44e18:	8080008f 	ldh	r2,2(r16)
   44e1c:	9809883a 	mov	r4,r19
   44e20:	14800226 	beq	r2,r18,44e2c <_fwalk_reent+0x7c>
   44e24:	a83ee83a 	callr	r21
   44e28:	b8aeb03a 	or	r23,r23,r2
   44e2c:	84001a04 	addi	r16,r16,104
   44e30:	8cbff51e 	bne	r17,r18,44e08 <__alt_mem_SHARED_MEMORY+0xfffc3e08>
   44e34:	a5000017 	ldw	r20,0(r20)
   44e38:	a03fee1e 	bne	r20,zero,44df4 <__alt_mem_SHARED_MEMORY+0xfffc3df4>
   44e3c:	b805883a 	mov	r2,r23
   44e40:	dfc00817 	ldw	ra,32(sp)
   44e44:	ddc00717 	ldw	r23,28(sp)
   44e48:	dd800617 	ldw	r22,24(sp)
   44e4c:	dd400517 	ldw	r21,20(sp)
   44e50:	dd000417 	ldw	r20,16(sp)
   44e54:	dcc00317 	ldw	r19,12(sp)
   44e58:	dc800217 	ldw	r18,8(sp)
   44e5c:	dc400117 	ldw	r17,4(sp)
   44e60:	dc000017 	ldw	r16,0(sp)
   44e64:	dec00904 	addi	sp,sp,36
   44e68:	f800283a 	ret
   44e6c:	002f883a 	mov	r23,zero
   44e70:	003ff206 	br	44e3c <__alt_mem_SHARED_MEMORY+0xfffc3e3c>

00044e74 <_setlocale_r>:
   44e74:	30001b26 	beq	r6,zero,44ee4 <_setlocale_r+0x70>
   44e78:	014001b4 	movhi	r5,6
   44e7c:	defffe04 	addi	sp,sp,-8
   44e80:	2962e304 	addi	r5,r5,-29812
   44e84:	3009883a 	mov	r4,r6
   44e88:	dc000015 	stw	r16,0(sp)
   44e8c:	dfc00115 	stw	ra,4(sp)
   44e90:	3021883a 	mov	r16,r6
   44e94:	0046f280 	call	46f28 <strcmp>
   44e98:	1000061e 	bne	r2,zero,44eb4 <_setlocale_r+0x40>
   44e9c:	008001b4 	movhi	r2,6
   44ea0:	10a2e204 	addi	r2,r2,-29816
   44ea4:	dfc00117 	ldw	ra,4(sp)
   44ea8:	dc000017 	ldw	r16,0(sp)
   44eac:	dec00204 	addi	sp,sp,8
   44eb0:	f800283a 	ret
   44eb4:	014001b4 	movhi	r5,6
   44eb8:	2962e204 	addi	r5,r5,-29816
   44ebc:	8009883a 	mov	r4,r16
   44ec0:	0046f280 	call	46f28 <strcmp>
   44ec4:	103ff526 	beq	r2,zero,44e9c <__alt_mem_SHARED_MEMORY+0xfffc3e9c>
   44ec8:	014001b4 	movhi	r5,6
   44ecc:	2962cd04 	addi	r5,r5,-29900
   44ed0:	8009883a 	mov	r4,r16
   44ed4:	0046f280 	call	46f28 <strcmp>
   44ed8:	103ff026 	beq	r2,zero,44e9c <__alt_mem_SHARED_MEMORY+0xfffc3e9c>
   44edc:	0005883a 	mov	r2,zero
   44ee0:	003ff006 	br	44ea4 <__alt_mem_SHARED_MEMORY+0xfffc3ea4>
   44ee4:	008001b4 	movhi	r2,6
   44ee8:	10a2e204 	addi	r2,r2,-29816
   44eec:	f800283a 	ret

00044ef0 <__locale_charset>:
   44ef0:	008001b4 	movhi	r2,6
   44ef4:	10a4df04 	addi	r2,r2,-27780
   44ef8:	f800283a 	ret

00044efc <__locale_mb_cur_max>:
   44efc:	008001b4 	movhi	r2,6
   44f00:	10aa8304 	addi	r2,r2,-22004
   44f04:	10800017 	ldw	r2,0(r2)
   44f08:	f800283a 	ret

00044f0c <__locale_msgcharset>:
   44f0c:	008001b4 	movhi	r2,6
   44f10:	10a4d704 	addi	r2,r2,-27812
   44f14:	f800283a 	ret

00044f18 <__locale_cjk_lang>:
   44f18:	0005883a 	mov	r2,zero
   44f1c:	f800283a 	ret

00044f20 <_localeconv_r>:
   44f20:	008001b4 	movhi	r2,6
   44f24:	10a4e704 	addi	r2,r2,-27748
   44f28:	f800283a 	ret

00044f2c <setlocale>:
   44f2c:	008001b4 	movhi	r2,6
   44f30:	10aa8204 	addi	r2,r2,-22008
   44f34:	280d883a 	mov	r6,r5
   44f38:	200b883a 	mov	r5,r4
   44f3c:	11000017 	ldw	r4,0(r2)
   44f40:	0044e741 	jmpi	44e74 <_setlocale_r>

00044f44 <localeconv>:
   44f44:	008001b4 	movhi	r2,6
   44f48:	10a4e704 	addi	r2,r2,-27748
   44f4c:	f800283a 	ret

00044f50 <__smakebuf_r>:
   44f50:	2880030b 	ldhu	r2,12(r5)
   44f54:	10c0008c 	andi	r3,r2,2
   44f58:	1800411e 	bne	r3,zero,45060 <__smakebuf_r+0x110>
   44f5c:	deffec04 	addi	sp,sp,-80
   44f60:	dc000f15 	stw	r16,60(sp)
   44f64:	2821883a 	mov	r16,r5
   44f68:	2940038f 	ldh	r5,14(r5)
   44f6c:	dc401015 	stw	r17,64(sp)
   44f70:	dfc01315 	stw	ra,76(sp)
   44f74:	dcc01215 	stw	r19,72(sp)
   44f78:	dc801115 	stw	r18,68(sp)
   44f7c:	2023883a 	mov	r17,r4
   44f80:	28001c16 	blt	r5,zero,44ff4 <__smakebuf_r+0xa4>
   44f84:	d80d883a 	mov	r6,sp
   44f88:	0048c300 	call	48c30 <_fstat_r>
   44f8c:	10001816 	blt	r2,zero,44ff0 <__smakebuf_r+0xa0>
   44f90:	d8800117 	ldw	r2,4(sp)
   44f94:	00e00014 	movui	r3,32768
   44f98:	10bc000c 	andi	r2,r2,61440
   44f9c:	14c80020 	cmpeqi	r19,r2,8192
   44fa0:	10c03726 	beq	r2,r3,45080 <__smakebuf_r+0x130>
   44fa4:	80c0030b 	ldhu	r3,12(r16)
   44fa8:	18c20014 	ori	r3,r3,2048
   44fac:	80c0030d 	sth	r3,12(r16)
   44fb0:	00c80004 	movi	r3,8192
   44fb4:	10c0521e 	bne	r2,r3,45100 <__smakebuf_r+0x1b0>
   44fb8:	8140038f 	ldh	r5,14(r16)
   44fbc:	8809883a 	mov	r4,r17
   44fc0:	00491540 	call	49154 <_isatty_r>
   44fc4:	10004c26 	beq	r2,zero,450f8 <__smakebuf_r+0x1a8>
   44fc8:	8080030b 	ldhu	r2,12(r16)
   44fcc:	80c010c4 	addi	r3,r16,67
   44fd0:	80c00015 	stw	r3,0(r16)
   44fd4:	10800054 	ori	r2,r2,1
   44fd8:	8080030d 	sth	r2,12(r16)
   44fdc:	00800044 	movi	r2,1
   44fe0:	80c00415 	stw	r3,16(r16)
   44fe4:	80800515 	stw	r2,20(r16)
   44fe8:	04810004 	movi	r18,1024
   44fec:	00000706 	br	4500c <__smakebuf_r+0xbc>
   44ff0:	8080030b 	ldhu	r2,12(r16)
   44ff4:	10c0200c 	andi	r3,r2,128
   44ff8:	18001f1e 	bne	r3,zero,45078 <__smakebuf_r+0x128>
   44ffc:	04810004 	movi	r18,1024
   45000:	10820014 	ori	r2,r2,2048
   45004:	8080030d 	sth	r2,12(r16)
   45008:	0027883a 	mov	r19,zero
   4500c:	900b883a 	mov	r5,r18
   45010:	8809883a 	mov	r4,r17
   45014:	004510c0 	call	4510c <_malloc_r>
   45018:	10002c26 	beq	r2,zero,450cc <__smakebuf_r+0x17c>
   4501c:	80c0030b 	ldhu	r3,12(r16)
   45020:	01000134 	movhi	r4,4
   45024:	21114404 	addi	r4,r4,17680
   45028:	89000f15 	stw	r4,60(r17)
   4502c:	18c02014 	ori	r3,r3,128
   45030:	80c0030d 	sth	r3,12(r16)
   45034:	80800015 	stw	r2,0(r16)
   45038:	80800415 	stw	r2,16(r16)
   4503c:	84800515 	stw	r18,20(r16)
   45040:	98001a1e 	bne	r19,zero,450ac <__smakebuf_r+0x15c>
   45044:	dfc01317 	ldw	ra,76(sp)
   45048:	dcc01217 	ldw	r19,72(sp)
   4504c:	dc801117 	ldw	r18,68(sp)
   45050:	dc401017 	ldw	r17,64(sp)
   45054:	dc000f17 	ldw	r16,60(sp)
   45058:	dec01404 	addi	sp,sp,80
   4505c:	f800283a 	ret
   45060:	288010c4 	addi	r2,r5,67
   45064:	28800015 	stw	r2,0(r5)
   45068:	28800415 	stw	r2,16(r5)
   4506c:	00800044 	movi	r2,1
   45070:	28800515 	stw	r2,20(r5)
   45074:	f800283a 	ret
   45078:	04801004 	movi	r18,64
   4507c:	003fe006 	br	45000 <__alt_mem_SHARED_MEMORY+0xfffc4000>
   45080:	81000a17 	ldw	r4,40(r16)
   45084:	00c00134 	movhi	r3,4
   45088:	18dbb104 	addi	r3,r3,28356
   4508c:	20ffc51e 	bne	r4,r3,44fa4 <__alt_mem_SHARED_MEMORY+0xfffc3fa4>
   45090:	8080030b 	ldhu	r2,12(r16)
   45094:	04810004 	movi	r18,1024
   45098:	84801315 	stw	r18,76(r16)
   4509c:	1484b03a 	or	r2,r2,r18
   450a0:	8080030d 	sth	r2,12(r16)
   450a4:	0027883a 	mov	r19,zero
   450a8:	003fd806 	br	4500c <__alt_mem_SHARED_MEMORY+0xfffc400c>
   450ac:	8140038f 	ldh	r5,14(r16)
   450b0:	8809883a 	mov	r4,r17
   450b4:	00491540 	call	49154 <_isatty_r>
   450b8:	103fe226 	beq	r2,zero,45044 <__alt_mem_SHARED_MEMORY+0xfffc4044>
   450bc:	8080030b 	ldhu	r2,12(r16)
   450c0:	10800054 	ori	r2,r2,1
   450c4:	8080030d 	sth	r2,12(r16)
   450c8:	003fde06 	br	45044 <__alt_mem_SHARED_MEMORY+0xfffc4044>
   450cc:	8080030b 	ldhu	r2,12(r16)
   450d0:	10c0800c 	andi	r3,r2,512
   450d4:	183fdb1e 	bne	r3,zero,45044 <__alt_mem_SHARED_MEMORY+0xfffc4044>
   450d8:	10800094 	ori	r2,r2,2
   450dc:	80c010c4 	addi	r3,r16,67
   450e0:	8080030d 	sth	r2,12(r16)
   450e4:	00800044 	movi	r2,1
   450e8:	80c00015 	stw	r3,0(r16)
   450ec:	80c00415 	stw	r3,16(r16)
   450f0:	80800515 	stw	r2,20(r16)
   450f4:	003fd306 	br	45044 <__alt_mem_SHARED_MEMORY+0xfffc4044>
   450f8:	04810004 	movi	r18,1024
   450fc:	003fc306 	br	4500c <__alt_mem_SHARED_MEMORY+0xfffc400c>
   45100:	0027883a 	mov	r19,zero
   45104:	04810004 	movi	r18,1024
   45108:	003fc006 	br	4500c <__alt_mem_SHARED_MEMORY+0xfffc400c>

0004510c <_malloc_r>:
   4510c:	defff504 	addi	sp,sp,-44
   45110:	dc800315 	stw	r18,12(sp)
   45114:	dfc00a15 	stw	ra,40(sp)
   45118:	df000915 	stw	fp,36(sp)
   4511c:	ddc00815 	stw	r23,32(sp)
   45120:	dd800715 	stw	r22,28(sp)
   45124:	dd400615 	stw	r21,24(sp)
   45128:	dd000515 	stw	r20,20(sp)
   4512c:	dcc00415 	stw	r19,16(sp)
   45130:	dc400215 	stw	r17,8(sp)
   45134:	dc000115 	stw	r16,4(sp)
   45138:	288002c4 	addi	r2,r5,11
   4513c:	00c00584 	movi	r3,22
   45140:	2025883a 	mov	r18,r4
   45144:	18807f2e 	bgeu	r3,r2,45344 <_malloc_r+0x238>
   45148:	047ffe04 	movi	r17,-8
   4514c:	1462703a 	and	r17,r2,r17
   45150:	8800a316 	blt	r17,zero,453e0 <_malloc_r+0x2d4>
   45154:	8940a236 	bltu	r17,r5,453e0 <_malloc_r+0x2d4>
   45158:	004dd580 	call	4dd58 <__malloc_lock>
   4515c:	00807dc4 	movi	r2,503
   45160:	1441e92e 	bgeu	r2,r17,45908 <_malloc_r+0x7fc>
   45164:	8804d27a 	srli	r2,r17,9
   45168:	1000a126 	beq	r2,zero,453f0 <_malloc_r+0x2e4>
   4516c:	00c00104 	movi	r3,4
   45170:	18811e36 	bltu	r3,r2,455ec <_malloc_r+0x4e0>
   45174:	8804d1ba 	srli	r2,r17,6
   45178:	12000e44 	addi	r8,r2,57
   4517c:	11c00e04 	addi	r7,r2,56
   45180:	4209883a 	add	r4,r8,r8
   45184:	04c001b4 	movhi	r19,6
   45188:	2109883a 	add	r4,r4,r4
   4518c:	9ce4f504 	addi	r19,r19,-27692
   45190:	2109883a 	add	r4,r4,r4
   45194:	9909883a 	add	r4,r19,r4
   45198:	24000117 	ldw	r16,4(r4)
   4519c:	213ffe04 	addi	r4,r4,-8
   451a0:	24009726 	beq	r4,r16,45400 <_malloc_r+0x2f4>
   451a4:	80800117 	ldw	r2,4(r16)
   451a8:	01bfff04 	movi	r6,-4
   451ac:	014003c4 	movi	r5,15
   451b0:	1184703a 	and	r2,r2,r6
   451b4:	1447c83a 	sub	r3,r2,r17
   451b8:	28c00716 	blt	r5,r3,451d8 <_malloc_r+0xcc>
   451bc:	1800920e 	bge	r3,zero,45408 <_malloc_r+0x2fc>
   451c0:	84000317 	ldw	r16,12(r16)
   451c4:	24008e26 	beq	r4,r16,45400 <_malloc_r+0x2f4>
   451c8:	80800117 	ldw	r2,4(r16)
   451cc:	1184703a 	and	r2,r2,r6
   451d0:	1447c83a 	sub	r3,r2,r17
   451d4:	28fff90e 	bge	r5,r3,451bc <__alt_mem_SHARED_MEMORY+0xfffc41bc>
   451d8:	3809883a 	mov	r4,r7
   451dc:	018001b4 	movhi	r6,6
   451e0:	9c000417 	ldw	r16,16(r19)
   451e4:	31a4f504 	addi	r6,r6,-27692
   451e8:	32000204 	addi	r8,r6,8
   451ec:	82013426 	beq	r16,r8,456c0 <_malloc_r+0x5b4>
   451f0:	80c00117 	ldw	r3,4(r16)
   451f4:	00bfff04 	movi	r2,-4
   451f8:	188e703a 	and	r7,r3,r2
   451fc:	3c45c83a 	sub	r2,r7,r17
   45200:	00c003c4 	movi	r3,15
   45204:	18811f16 	blt	r3,r2,45684 <_malloc_r+0x578>
   45208:	32000515 	stw	r8,20(r6)
   4520c:	32000415 	stw	r8,16(r6)
   45210:	10007f0e 	bge	r2,zero,45410 <_malloc_r+0x304>
   45214:	00807fc4 	movi	r2,511
   45218:	11c0fd36 	bltu	r2,r7,45610 <_malloc_r+0x504>
   4521c:	3806d0fa 	srli	r3,r7,3
   45220:	01c00044 	movi	r7,1
   45224:	30800117 	ldw	r2,4(r6)
   45228:	19400044 	addi	r5,r3,1
   4522c:	294b883a 	add	r5,r5,r5
   45230:	1807d0ba 	srai	r3,r3,2
   45234:	294b883a 	add	r5,r5,r5
   45238:	294b883a 	add	r5,r5,r5
   4523c:	298b883a 	add	r5,r5,r6
   45240:	38c6983a 	sll	r3,r7,r3
   45244:	29c00017 	ldw	r7,0(r5)
   45248:	2a7ffe04 	addi	r9,r5,-8
   4524c:	1886b03a 	or	r3,r3,r2
   45250:	82400315 	stw	r9,12(r16)
   45254:	81c00215 	stw	r7,8(r16)
   45258:	30c00115 	stw	r3,4(r6)
   4525c:	2c000015 	stw	r16,0(r5)
   45260:	3c000315 	stw	r16,12(r7)
   45264:	2005d0ba 	srai	r2,r4,2
   45268:	01400044 	movi	r5,1
   4526c:	288a983a 	sll	r5,r5,r2
   45270:	19406f36 	bltu	r3,r5,45430 <_malloc_r+0x324>
   45274:	28c4703a 	and	r2,r5,r3
   45278:	10000a1e 	bne	r2,zero,452a4 <_malloc_r+0x198>
   4527c:	00bfff04 	movi	r2,-4
   45280:	294b883a 	add	r5,r5,r5
   45284:	2088703a 	and	r4,r4,r2
